ccopy_reg
_reconstructor
p0
(cPyRoc
ROCData
p1
c__builtin__
object
p2
Ntp3
Rp4
(dp5
S'linestyle'
p6
S'r-'
p7
sS'data'
p8
(lp9
(I1
cnumpy.core.multiarray
scalar
p10
(cnumpy
dtype
p11
(S'f8'
p12
I0
I1
tp13
Rp14
(I3
S'<'
p15
NNNI-1
I-1
I0
tp16
bS'\xba\xd1\xc8\xef\xce\x19\xef?'
p17
tp18
Rp19
tp20
a(I1
g10
(g14
S'\xaf\xa3\xd4\xe3\xd6\x07\xef?'
p21
tp22
Rp23
tp24
a(I1
g10
(g14
S'\xe8z\xda\x06\x00\xc6\xee?'
p25
tp26
Rp27
tp28
a(I1
g10
(g14
S'.\x07!Xc\xb0\xee?'
p29
tp30
Rp31
tp32
a(I1
g10
(g14
S'\xbb=u\xedp\xa8\xee?'
p33
tp34
Rp35
tp36
a(I1
g10
(g14
S'\xda\x02\xc9\xf3\xf3x\xee?'
p37
tp38
Rp39
tp40
a(I1
g10
(g14
S's\xd8>\xa5\x0br\xee?'
p41
tp42
Rp43
tp44
a(I1
g10
(g14
S'D\xa8V\x95{f\xee?'
p45
tp46
Rp47
tp48
a(I1
g10
(g14
S'\xcc\xc8\x8b\xd7iM\xee?'
p49
tp50
Rp51
tp52
a(I1
g10
(g14
S'\x05G\xc1\xe7\x8b\xf3\xed?'
p53
tp54
Rp55
tp56
a(I1
g10
(g14
S'\x86\xe7\xde\x0e4\xd5\xed?'
p57
tp58
Rp59
tp60
a(I1
g10
(g14
S'\xfc\x80zQ\xc1\x81\xed?'
p61
tp62
Rp63
tp64
a(I1
g10
(g14
S'i\x0e\xd2r\xe5u\xed?'
p65
tp66
Rp67
tp68
a(I1
g10
(g14
S'o\xff\xa5\x8c\xbas\xed?'
p69
tp70
Rp71
tp72
a(I1
g10
(g14
S'\x06ND\x0f%h\xed?'
p73
tp74
Rp75
tp76
a(I1
g10
(g14
S'T\xea\x03j\x98K\xed?'
p77
tp78
Rp79
tp80
a(I1
g10
(g14
S'\xbd\xbb\xbb\xbb\xbb;\xed?'
p81
tp82
Rp83
tp84
a(I1
g10
(g14
S"\x8a\xe4\x8d#~'\xed?"
p85
tp86
Rp87
tp88
a(I1
g10
(g14
S'\x00\x10;\x1f\x95&\xed?'
p89
tp90
Rp91
tp92
a(I1
g10
(g14
S'\x84?\xcf\x97\xed\x16\xed?'
p93
tp94
Rp95
tp96
a(I1
g10
(g14
S'\xd8\x1f\x98\x00\xb2\t\xed?'
p97
tp98
Rp99
tp100
a(I1
g10
(g14
S'\x14\xa4\x9eG\xd7\xd1\xec?'
p101
tp102
Rp103
tp104
a(I1
g10
(g14
S'\x92\xb3\xadH\xe1\xd0\xec?'
p105
tp106
Rp107
tp108
a(I1
g10
(g14
S'Zh\xd9\x18\xca\xc6\xec?'
p109
tp110
Rp111
tp112
a(I1
g10
(g14
S'`\xffp$\xf5\x99\xec?'
p113
tp114
Rp115
tp116
a(I1
g10
(g14
S'\xe5\xf9\x9e\xeb<\x87\xec?'
p117
tp118
Rp119
tp120
a(I1
g10
(g14
S'\xc0\xeeD]R|\xec?'
p121
tp122
Rp123
tp124
a(I1
g10
(g14
S'\x00\xf7_v\x92C\xec?'
p125
tp126
Rp127
tp128
a(I1
g10
(g14
S'\x12\x0eh6\xd6;\xec?'
p129
tp130
Rp131
tp132
a(I1
g10
(g14
S'{\x04^X\xeb6\xec?'
p133
tp134
Rp135
tp136
a(I1
g10
(g14
S'\xb2J\x07\x04\x03&\xec?'
p137
tp138
Rp139
tp140
a(I1
g10
(g14
S'\xect\x95S\xa5\x19\xec?'
p141
tp142
Rp143
tp144
a(I1
g10
(g14
S'\x00\xfe`*Z\xf0\xeb?'
p145
tp146
Rp147
tp148
a(I1
g10
(g14
S'\xc1\x1cn\x88\xa6\xd2\xeb?'
p149
tp150
Rp151
tp152
a(I1
g10
(g14
S'\xbf\xc23w\xe1\xb8\xeb?'
p153
tp154
Rp155
tp156
a(I1
g10
(g14
S'\xa5[Jd\xbd\xb7\xeb?'
p157
tp158
Rp159
tp160
a(I1
g10
(g14
S'3\x8a\x10\xc5\x16\xa4\xeb?'
p161
tp162
Rp163
tp164
a(I1
g10
(g14
S'\x18\xa6\x0fB\x02\x9f\xeb?'
p165
tp166
Rp167
tp168
a(I1
g10
(g14
S'\xdb\xe0%\x0b\x80\x9d\xeb?'
p169
tp170
Rp171
tp172
a(I1
g10
(g14
S']\tC\x93\x06\x94\xeb?'
p173
tp174
Rp175
tp176
a(I1
g10
(g14
S']\x92\xf4\xdf\xe9\x8a\xeb?'
p177
tp178
Rp179
tp180
a(I1
g10
(g14
S'8D\xb4\x81%/\xeb?'
p181
tp182
Rp183
tp184
a(I1
g10
(g14
S'#\xd5\xb3\x02\xf6\xec\xea?'
p185
tp186
Rp187
tp188
a(I1
g10
(g14
S'\x85-\xd8\x82-\xd8\xea?'
p189
tp190
Rp191
tp192
a(I1
g10
(g14
S'3\x05\x1ag8\xcd\xea?'
p193
tp194
Rp195
tp196
a(I1
g10
(g14
S'L\xbf\x90\xd6\xed\xca\xea?'
p197
tp198
Rp199
tp200
a(I1
g10
(g14
S'\xceG\xe8L\x0b\xc3\xea?'
p201
tp202
Rp203
tp204
a(I1
g10
(g14
S'}]\xf7\xdf\xf9\xbf\xea?'
p205
tp206
Rp207
tp208
a(I1
g10
(g14
S'\xe6\x95\xc1\xfe\r\xa7\xea?'
p209
tp210
Rp211
tp212
a(I1
g10
(g14
S'\xff\xcd\x8bP3\x98\xea?'
p213
tp214
Rp215
tp216
a(I1
g10
(g14
S's\xad\x1a\xbb\x8e\x95\xea?'
p217
tp218
Rp219
tp220
a(I1
g10
(g14
S'\x06\x15\xf7\x90y\x93\xea?'
p221
tp222
Rp223
tp224
a(I1
g10
(g14
S'\x8e<\xb6\x7f\xd1V\xea?'
p225
tp226
Rp227
tp228
a(I1
g10
(g14
S'n~Z\xbe\x87L\xea?'
p229
tp230
Rp231
tp232
a(I1
g10
(g14
S'\xffq\xf1\\\xe6B\xea?'
p233
tp234
Rp235
tp236
a(I1
g10
(g14
S'\xd1\xae\xea\x0e\xb9A\xea?'
p237
tp238
Rp239
tp240
a(I1
g10
(g14
S'\x89\xec\xd1\x10\xa2A\xea?'
p241
tp242
Rp243
tp244
a(I1
g10
(g14
S'\xf8\xb8X\x83\xe7\x12\xea?'
p245
tp246
Rp247
tp248
a(I1
g10
(g14
S'\xe4L\xb1\x9a\xbc\t\xea?'
p249
tp250
Rp251
tp252
a(I1
g10
(g14
S'\x8a\x11Vk\x8c\xea\xe9?'
p253
tp254
Rp255
tp256
a(I1
g10
(g14
S'f\x8a\xf9H\xb4\xba\xe9?'
p257
tp258
Rp259
tp260
a(I1
g10
(g14
S'\xf6\xf1\x8f<\xd3\x8a\xe9?'
p261
tp262
Rp263
tp264
a(I1
g10
(g14
S'\x9d\xe2\xb0\xc3\xaa\x84\xe9?'
p265
tp266
Rp267
tp268
a(I1
g10
(g14
S'\xbc\xcb\xff\xe5\xafw\xe9?'
p269
tp270
Rp271
tp272
a(I1
g10
(g14
S'\x12\xc4_\x81\x01j\xe9?'
p273
tp274
Rp275
tp276
a(I1
g10
(g14
S'7"\xd3\xef%g\xe9?'
p277
tp278
Rp279
tp280
a(I1
g10
(g14
S'=e\x90\xe4\xe3_\xe9?'
p281
tp282
Rp283
tp284
a(I1
g10
(g14
S'\x17\xa6\xad\x07\xae[\xe9?'
p285
tp286
Rp287
tp288
a(I1
g10
(g14
S'F\x9c#a\x8dS\xe9?'
p289
tp290
Rp291
tp292
a(I1
g10
(g14
S'<b\x97\xb6vE\xe9?'
p293
tp294
Rp295
tp296
a(I1
g10
(g14
S'\xea\xcc\xe6\xaeq<\xe9?'
p297
tp298
Rp299
tp300
a(I1
g10
(g14
S'\xfb[\xe50Y6\xe9?'
p301
tp302
Rp303
tp304
a(I1
g10
(g14
S'%\xf5\x91\x06U5\xe9?'
p305
tp306
Rp307
tp308
a(I1
g10
(g14
S'\xfdy\xa8WU4\xe9?'
p309
tp310
Rp311
tp312
a(I1
g10
(g14
S'\x1dh\xb4\x12\x91\x10\xe9?'
p313
tp314
Rp315
tp316
a(I1
g10
(g14
S'\xfb\x8c\xc7\xbfL\x0e\xe9?'
p317
tp318
Rp319
tp320
a(I1
g10
(g14
S'a/\x02\xc6;\r\xe9?'
p321
tp322
Rp323
tp324
a(I1
g10
(g14
S'\xd4\n/\xf0\xc5\xfc\xe8?'
p325
tp326
Rp327
tp328
a(I1
g10
(g14
S'S<\x08\x81\xf6\xf0\xe8?'
p329
tp330
Rp331
tp332
a(I1
g10
(g14
S',r\x0f\x82\xbe\xe9\xe8?'
p333
tp334
Rp335
tp336
a(I1
g10
(g14
S'n\xc2\xa10\xb8\xca\xe8?'
p337
tp338
Rp339
tp340
a(I1
g10
(g14
S'\xb7\xf4\xc3\xb7\xf4\xc3\xe8?'
p341
tp342
Rp343
tp344
a(I1
g10
(g14
S'6C\x84\x17\x88\xb6\xe8?'
p345
tp346
Rp347
tp348
a(I1
g10
(g14
S'\x97R\xd9\xcb\xe6\xb0\xe8?'
p349
tp350
Rp351
tp352
a(I1
g10
(g14
S"\xb3}\xb1'\x8c\xa2\xe8?"
p353
tp354
Rp355
tp356
a(I1
g10
(g14
S'\xdf\x90V/\x7fW\xe8?'
p357
tp358
Rp359
tp360
a(I1
g10
(g14
S'\xa5\x06\x9d15W\xe8?'
p361
tp362
Rp363
tp364
a(I1
g10
(g14
S'\xd7\xa2\xa8A4Q\xe8?'
p365
tp366
Rp367
tp368
a(I1
g10
(g14
S'\x83\x06\x9beKM\xe8?'
p369
tp370
Rp371
tp372
a(I1
g10
(g14
S'\x84\xa7U\x82\xdd7\xe8?'
p373
tp374
Rp375
tp376
a(I1
g10
(g14
S'\xc6Y\x96_\xf3/\xe8?'
p377
tp378
Rp379
tp380
a(I1
g10
(g14
S'\x13L\xae_\x7f/\xe8?'
p381
tp382
Rp383
tp384
a(I1
g10
(g14
S'\xa9\x80zT\x19/\xe8?'
p385
tp386
Rp387
tp388
a(I1
g10
(g14
S'\x18mO\x0e\x96+\xe8?'
p389
tp390
Rp391
tp392
a(I1
g10
(g14
S'S~G\xa2\xa2*\xe8?'
p393
tp394
Rp395
tp396
a(I1
g10
(g14
S'\x8f\x9fh\xe2!%\xe8?'
p397
tp398
Rp399
tp400
a(I1
g10
(g14
S'\x03==\x12\xa8\x1c\xe8?'
p401
tp402
Rp403
tp404
a(I1
g10
(g14
S'\xdfd\x12\xe6\xa7\xfa\xe7?'
p405
tp406
Rp407
tp408
a(I1
g10
(g14
S'\xa6pv/\xeb\xf9\xe7?'
p409
tp410
Rp411
tp412
a(I1
g10
(g14
S'26\x0b\x1f7\xf0\xe7?'
p413
tp414
Rp415
tp416
a(I1
g10
(g14
S'\n\xaa5\xa2\xb6\xdc\xe7?'
p417
tp418
Rp419
tp420
a(I1
g10
(g14
S'\xa8\xc0\x07\xcd\xa3\xcc\xe7?'
p421
tp422
Rp423
tp424
a(I1
g10
(g14
S'aUc\x0f\x9d\xc4\xe7?'
p425
tp426
Rp427
tp428
a(I1
g10
(g14
S"\xfa\xb0'\x93J\xc1\xe7?"
p429
tp430
Rp431
tp432
a(I0
g10
(g14
S'\x0c\xe0\xae5<\xbe\xe7?'
p433
tp434
Rp435
tp436
a(I1
g10
(g14
S'\x068\xeb\x81\xf2\xbd\xe7?'
p437
tp438
Rp439
tp440
a(I1
g10
(g14
S'\x93`\xe3qG\xbc\xe7?'
p441
tp442
Rp443
tp444
a(I1
g10
(g14
S'nELE\x04\xae\xe7?'
p445
tp446
Rp447
tp448
a(I1
g10
(g14
S'\xaa\x81\xcb\xae\xfa\x95\xe7?'
p449
tp450
Rp451
tp452
a(I1
g10
(g14
S'\xf4\xce\x89\x1ba{\xe7?'
p453
tp454
Rp455
tp456
a(I1
g10
(g14
S'\x16u\x96\\lx\xe7?'
p457
tp458
Rp459
tp460
a(I1
g10
(g14
S'\x9aoh\xfa\x92f\xe7?'
p461
tp462
Rp463
tp464
a(I1
g10
(g14
S'\x83\xe9br\xb4e\xe7?'
p465
tp466
Rp467
tp468
a(I0
g10
(g14
S'3\xdc\xee\xf8Jb\xe7?'
p469
tp470
Rp471
tp472
a(I1
g10
(g14
S'\xcc\xc9\xec\xba\xaf`\xe7?'
p473
tp474
Rp475
tp476
a(I1
g10
(g14
S'\xcc\xb3(D\xc8V\xe7?'
p477
tp478
Rp479
tp480
a(I1
g10
(g14
S'\r\xfd\xb6&\x1f?\xe7?'
p481
tp482
Rp483
tp484
a(I1
g10
(g14
S'\xb6\xb9xH\xf58\xe7?'
p485
tp486
Rp487
tp488
a(I1
g10
(g14
S'H\xbd\xc8\xfd\x110\xe7?'
p489
tp490
Rp491
tp492
a(I1
g10
(g14
S'\x7f^\x99;\xcf$\xe7?'
p493
tp494
Rp495
tp496
a(I1
g10
(g14
S'=\xea\xa3>\xea#\xe7?'
p497
tp498
Rp499
tp500
a(I1
g10
(g14
S'\xaa\xed\x85\x8b\x15\x08\xe7?'
p501
tp502
Rp503
tp504
a(I1
g10
(g14
S'\xce\xf8f\x81\xd4\x03\xe7?'
p505
tp506
Rp507
tp508
a(I1
g10
(g14
S'\xd3\xed\xaa`\xe6\x02\xe7?'
p509
tp510
Rp511
tp512
a(I1
g10
(g14
S'f7k\xf7\xc3\xfe\xe6?'
p513
tp514
Rp515
tp516
a(I1
g10
(g14
S')\x14I\xd4\xac\xfd\xe6?'
p517
tp518
Rp519
tp520
a(I1
g10
(g14
S'\xffj\r^\xa9\xfc\xe6?'
p521
tp522
Rp523
tp524
a(I1
g10
(g14
S'\xad\xe4\xd7\xce\x18\xf0\xe6?'
p525
tp526
Rp527
tp528
a(I1
g10
(g14
S'\xcc,v\x9c\xa8\xef\xe6?'
p529
tp530
Rp531
tp532
a(I1
g10
(g14
S'\xef*\\O3\xe9\xe6?'
p533
tp534
Rp535
tp536
a(I1
g10
(g14
S't\xd4A~\xab\xe5\xe6?'
p537
tp538
Rp539
tp540
a(I1
g10
(g14
S'S\x9e\xc9!\xb6\xd3\xe6?'
p541
tp542
Rp543
tp544
a(I1
g10
(g14
S'\xa9\xa8?\xc2\xcf\xd1\xe6?'
p545
tp546
Rp547
tp548
a(I1
g10
(g14
S'4\xdaeS_\xd1\xe6?'
p549
tp550
Rp551
tp552
a(I1
g10
(g14
S'\xda\x93\xca\xcf\xbc\xa6\xe6?'
p553
tp554
Rp555
tp556
a(I1
g10
(g14
S'\xa5\xa3yn\xdc\x8a\xe6?'
p557
tp558
Rp559
tp560
a(I1
g10
(g14
S'\x93Q\xe2]o\x82\xe6?'
p561
tp562
Rp563
tp564
a(I1
g10
(g14
S'li!`\xadn\xe6?'
p565
tp566
Rp567
tp568
a(I1
g10
(g14
S'\xcf_\xd0?\x9dZ\xe6?'
p569
tp570
Rp571
tp572
a(I1
g10
(g14
S'\xd8\xa8\raeF\xe6?'
p573
tp574
Rp575
tp576
a(I1
g10
(g14
S'\xfdrb\x11K9\xe6?'
p577
tp578
Rp579
tp580
a(I1
g10
(g14
S'\xdcD\xba\xa7\xb7+\xe6?'
p581
tp582
Rp583
tp584
a(I1
g10
(g14
S'\xef\xb6\xe6Rn \xe6?'
p585
tp586
Rp587
tp588
a(I1
g10
(g14
S',\xf6J]8\x1c\xe6?'
p589
tp590
Rp591
tp592
a(I1
g10
(g14
S'f\xca\xe0\xe9\x06\x06\xe6?'
p593
tp594
Rp595
tp596
a(I1
g10
(g14
S'\xb1\xfb\x00Q\xd8\x02\xe6?'
p597
tp598
Rp599
tp600
a(I1
g10
(g14
S']k1\xd0\x00\xfe\xe5?'
p601
tp602
Rp603
tp604
a(I1
g10
(g14
S'\xb8\xf3w\x0f\n\xf0\xe5?'
p605
tp606
Rp607
tp608
a(I1
g10
(g14
S'\xb3\x83\xa3h\x0e\xed\xe5?'
p609
tp610
Rp611
tp612
a(I1
g10
(g14
S'\x14C\xf1\xf6{\xd0\xe5?'
p613
tp614
Rp615
tp616
a(I1
g10
(g14
S'\x14\xe2\xe33g\xcf\xe5?'
p617
tp618
Rp619
tp620
a(I1
g10
(g14
S'1\x1e(s\xa1\xc9\xe5?'
p621
tp622
Rp623
tp624
a(I1
g10
(g14
S';\x99\xa3n\xe7\xc7\xe5?'
p625
tp626
Rp627
tp628
a(I1
g10
(g14
S'\x06\xaf\xe8Q\xca\xc3\xe5?'
p629
tp630
Rp631
tp632
a(I1
g10
(g14
S'\x85\xa6\x17\x90}\xbb\xe5?'
p633
tp634
Rp635
tp636
a(I1
g10
(g14
S'\xbb\x07\x8a\xd1s\x9c\xe5?'
p637
tp638
Rp639
tp640
a(I1
g10
(g14
S'\xee\x13\x05\xb3C\x8e\xe5?'
p641
tp642
Rp643
tp644
a(I1
g10
(g14
S'.Q\x8b-Q\x8b\xe5?'
p645
tp646
Rp647
tp648
a(I1
g10
(g14
S'Saj\xb5N\x86\xe5?'
p649
tp650
Rp651
tp652
a(I1
g10
(g14
S'\xb23\xe9\xda\x8fx\xe5?'
p653
tp654
Rp655
tp656
a(I1
g10
(g14
S'\r\x83\xd0\x19\xe2\\\xe5?'
p657
tp658
Rp659
tp660
a(I1
g10
(g14
S'fsC\x02\x08S\xe5?'
p661
tp662
Rp663
tp664
a(I1
g10
(g14
S'\xa3\xf1\x9b\xff\x9bO\xe5?'
p665
tp666
Rp667
tp668
a(I1
g10
(g14
S'\xe8\x9a\x8f\xb7\x86K\xe5?'
p669
tp670
Rp671
tp672
a(I1
g10
(g14
S'X\x19\xa0\x80Z>\xe5?'
p673
tp674
Rp675
tp676
a(I1
g10
(g14
S'&4\xda$A9\xe5?'
p677
tp678
Rp679
tp680
a(I1
g10
(g14
S'\xe5__R\t.\xe5?'
p681
tp682
Rp683
tp684
a(I1
g10
(g14
S'!c;\xa8\x18+\xe5?'
p685
tp686
Rp687
tp688
a(I1
g10
(g14
S'\xa6\xb0P5\xa9(\xe5?'
p689
tp690
Rp691
tp692
a(I1
g10
(g14
S'\xc8\xdc[V\xf0$\xe5?'
p693
tp694
Rp695
tp696
a(I1
g10
(g14
S'\x8c\x9aDQD$\xe5?'
p697
tp698
Rp699
tp700
a(I1
g10
(g14
S'\x183c\x85\xf7"\xe5?'
p701
tp702
Rp703
tp704
a(I1
g10
(g14
S';\xec\xc0_\xcf\x05\xe5?'
p705
tp706
Rp707
tp708
a(I1
g10
(g14
S'\x81\xc5;>x\xfc\xe4?'
p709
tp710
Rp711
tp712
a(I1
g10
(g14
S'@\xa3\xfa\x8dh\xf8\xe4?'
p713
tp714
Rp715
tp716
a(I1
g10
(g14
S'\t-\x8a\xbb]\xf8\xe4?'
p717
tp718
Rp719
tp720
a(I1
g10
(g14
S'Ar\xbd\xac\x03\xe6\xe4?'
p721
tp722
Rp723
tp724
a(I0
g10
(g14
S'\xcd\xc6\x8fR\xb2\xe1\xe4?'
p725
tp726
Rp727
tp728
a(I1
g10
(g14
S'\xea\xe9\x80\x95\xbf\xe0\xe4?'
p729
tp730
Rp731
tp732
a(I1
g10
(g14
S'E;: \x8e\xd7\xe4?'
p733
tp734
Rp735
tp736
a(I1
g10
(g14
S'\x9fAu\xfe\x9a\xd5\xe4?'
p737
tp738
Rp739
tp740
a(I1
g10
(g14
S'Z>\xa7\x84d\xd4\xe4?'
p741
tp742
Rp743
tp744
a(I1
g10
(g14
S'\xae\x19\x05Lb\xcb\xe4?'
p745
tp746
Rp747
tp748
a(I1
g10
(g14
S'\xc6\xda\xf2\xab\xe9\xc2\xe4?'
p749
tp750
Rp751
tp752
a(I1
g10
(g14
S'o\xc0|\x95\xa3\xc1\xe4?'
p753
tp754
Rp755
tp756
a(I1
g10
(g14
S'\xef\xf0\x01q\xee\xbc\xe4?'
p757
tp758
Rp759
tp760
a(I1
g10
(g14
S'\xcf\xe1\xf5\xcbM\xba\xe4?'
p761
tp762
Rp763
tp764
a(I1
g10
(g14
S'\x7f\x1f\x17\n\x84\xb3\xe4?'
p765
tp766
Rp767
tp768
a(I1
g10
(g14
S'Wcny=\xab\xe4?'
p769
tp770
Rp771
tp772
a(I1
g10
(g14
S'\xa8\xcd8\xcf_\xaa\xe4?'
p773
tp774
Rp775
tp776
a(I0
g10
(g14
S'o\xd7\x87\xc1\x8f\xa6\xe4?'
p777
tp778
Rp779
tp780
a(I1
g10
(g14
S'n\x9a\xf9Ld\xa2\xe4?'
p781
tp782
Rp783
tp784
a(I1
g10
(g14
S'3\xb4A\x14{\x9f\xe4?'
p785
tp786
Rp787
tp788
a(I1
g10
(g14
S'v\xed\xd9\xf9\xf3\x9c\xe4?'
p789
tp790
Rp791
tp792
a(I1
g10
(g14
S'\xee\xf8aJ\x83\x9a\xe4?'
p793
tp794
Rp795
tp796
a(I1
g10
(g14
S'_\xf1\xb3\x8d]\x94\xe4?'
p797
tp798
Rp799
tp800
a(I1
g10
(g14
S'\x96_\x8f%"\x85\xe4?'
p801
tp802
Rp803
tp804
a(I1
g10
(g14
S'\x87\xca\xe7P\x03y\xe4?'
p805
tp806
Rp807
tp808
a(I1
g10
(g14
S'?wz-9u\xe4?'
p809
tp810
Rp811
tp812
a(I1
g10
(g14
S'\xc4#_\x1e\x04u\xe4?'
p813
tp814
Rp815
tp816
a(I1
g10
(g14
S'\xab\x91\xe9\xa9\x96s\xe4?'
p817
tp818
Rp819
tp820
a(I1
g10
(g14
S'\xbfR\xd5f\xfdr\xe4?'
p821
tp822
Rp823
tp824
a(I1
g10
(g14
S'\xd6\xc8vv\xc0i\xe4?'
p825
tp826
Rp827
tp828
a(I1
g10
(g14
S'\x83:\x16\xfd=g\xe4?'
p829
tp830
Rp831
tp832
a(I1
g10
(g14
S'a\xdf:\xb8\x80f\xe4?'
p833
tp834
Rp835
tp836
a(I1
g10
(g14
S'\x0cK\xe3E\xd7e\xe4?'
p837
tp838
Rp839
tp840
a(I1
g10
(g14
S'A^9CVd\xe4?'
p841
tp842
Rp843
tp844
a(I1
g10
(g14
S'\xbe\x1c\xfam\xfba\xe4?'
p845
tp846
Rp847
tp848
a(I1
g10
(g14
S'\x18\x06g\xce?]\xe4?'
p849
tp850
Rp851
tp852
a(I1
g10
(g14
S'4!\x8e\xceE[\xe4?'
p853
tp854
Rp855
tp856
a(I1
g10
(g14
S'\x1f\xd5\x8e\x94\x86Y\xe4?'
p857
tp858
Rp859
tp860
a(I1
g10
(g14
S'\\\xc8\xd3y\x0eU\xe4?'
p861
tp862
Rp863
tp864
a(I1
g10
(g14
S"\xbf(\xc7y'Q\xe4?"
p865
tp866
Rp867
tp868
a(I1
g10
(g14
S'\xbf\x93Hb\x07Q\xe4?'
p869
tp870
Rp871
tp872
a(I1
g10
(g14
S'\\a\x1eG\xceG\xe4?'
p873
tp874
Rp875
tp876
a(I1
g10
(g14
S'\x85(\xf1\xa9\xf0D\xe4?'
p877
tp878
Rp879
tp880
a(I1
g10
(g14
S'\xc4\x85:\xf6\tA\xe4?'
p881
tp882
Rp883
tp884
a(I1
g10
(g14
S'-$\x1d\xf4\xcf;\xe4?'
p885
tp886
Rp887
tp888
a(I1
g10
(g14
S'vs7ws7\xe4?'
p889
tp890
Rp891
tp892
a(I1
g10
(g14
S'i6\xac\xb0\xfc5\xe4?'
p893
tp894
Rp895
tp896
a(I1
g10
(g14
S'\xedi&\xeei&\xe4?'
p897
tp898
Rp899
tp900
a(I1
g10
(g14
S'(\x06\xb0l\xbc#\xe4?'
p901
tp902
Rp903
tp904
a(I1
g10
(g14
S'\x86\x18\x98\xf7U"\xe4?'
p905
tp906
Rp907
tp908
a(I1
g10
(g14
S'\x1aw\xaf>$\x12\xe4?'
p909
tp910
Rp911
tp912
a(I1
g10
(g14
S'f}@\x02\xc6\x06\xe4?'
p913
tp914
Rp915
tp916
a(I1
g10
(g14
S'C\xaed\xbd\xdd\x03\xe4?'
p917
tp918
Rp919
tp920
a(I1
g10
(g14
S'=\xc7f\xe6\x95\xfd\xe3?'
p921
tp922
Rp923
tp924
a(I1
g10
(g14
S'N\xa3\x03\xd34\xfa\xe3?'
p925
tp926
Rp927
tp928
a(I1
g10
(g14
S'\xfb}\xfbe\xcd\xee\xe3?'
p929
tp930
Rp931
tp932
a(I1
g10
(g14
S'\xd3\xd5oz\xba\xed\xe3?'
p933
tp934
Rp935
tp936
a(I1
g10
(g14
S'q=!&\xc8\xea\xe3?'
p937
tp938
Rp939
tp940
a(I1
g10
(g14
S'\xba\x13\xee\x92\x97\xe3\xe3?'
p941
tp942
Rp943
tp944
a(I1
g10
(g14
S'C\xe4\x859\r\xe2\xe3?'
p945
tp946
Rp947
tp948
a(I1
g10
(g14
S'\xa6\xcfIi\xdb\xd9\xe3?'
p949
tp950
Rp951
tp952
a(I1
g10
(g14
S'\xbd\xb0\xfbr;\xc5\xe3?'
p953
tp954
Rp955
tp956
a(I1
g10
(g14
S'\xdf"\x10bD\xc4\xe3?'
p957
tp958
Rp959
tp960
a(I1
g10
(g14
S'\xe0\x12\xb0y^\xc1\xe3?'
p961
tp962
Rp963
tp964
a(I1
g10
(g14
S'![\x1e\x00\xb2\xb9\xe3?'
p965
tp966
Rp967
tp968
a(I1
g10
(g14
S':6NP\xae\xb3\xe3?'
p969
tp970
Rp971
tp972
a(I1
g10
(g14
S'\x8b\xe3\xdb\xc7\xed\xb2\xe3?'
p973
tp974
Rp975
tp976
a(I1
g10
(g14
S'\xcaaU\xe7\x01\xb2\xe3?'
p977
tp978
Rp979
tp980
a(I1
g10
(g14
S'&\x92Y\xb4\x8a\xb1\xe3?'
p981
tp982
Rp983
tp984
a(I1
g10
(g14
S']x\x186\xe6\xa6\xe3?'
p985
tp986
Rp987
tp988
a(I1
g10
(g14
S'&\xf1/\xb6\xb3\xa5\xe3?'
p989
tp990
Rp991
tp992
a(I1
g10
(g14
S'\r\xb0eM\x0f\x8e\xe3?'
p993
tp994
Rp995
tp996
a(I1
g10
(g14
S'\xbaT\xea\xa2\xb8\x8b\xe3?'
p997
tp998
Rp999
tp1000
a(I1
g10
(g14
S'\xbd\x8d\xe55\x99\x8b\xe3?'
p1001
tp1002
Rp1003
tp1004
a(I1
g10
(g14
S'\xe5\x83\xdd\xcf\xf0\x86\xe3?'
p1005
tp1006
Rp1007
tp1008
a(I1
g10
(g14
S'\xd4\x8c\xa6\xe9\x1f}\xe3?'
p1009
tp1010
Rp1011
tp1012
a(I1
g10
(g14
S'\x9d\xcet\x81hx\xe3?'
p1013
tp1014
Rp1015
tp1016
a(I1
g10
(g14
S'\x1c%\n\xe8Is\xe3?'
p1017
tp1018
Rp1019
tp1020
a(I1
g10
(g14
S'\xed\xb3\n\x93\xeee\xe3?'
p1021
tp1022
Rp1023
tp1024
a(I1
g10
(g14
S'\x1e\x97f\xee\x12`\xe3?'
p1025
tp1026
Rp1027
tp1028
a(I1
g10
(g14
S'\xd9U\xdco\x01_\xe3?'
p1029
tp1030
Rp1031
tp1032
a(I0
g10
(g14
S'?\xb1\xb7\xc1\xed\\\xe3?'
p1033
tp1034
Rp1035
tp1036
a(I1
g10
(g14
S'\xbbDL\x05\xebZ\xe3?'
p1037
tp1038
Rp1039
tp1040
a(I1
g10
(g14
S'\x8a\x9b5\xf9\x99U\xe3?'
p1041
tp1042
Rp1043
tp1044
a(I1
g10
(g14
S'\xafC\xb6\xfa\xceS\xe3?'
p1045
tp1046
Rp1047
tp1048
a(I1
g10
(g14
S'k":\xac\xdb=\xe3?'
p1049
tp1050
Rp1051
tp1052
a(I1
g10
(g14
S'vm\x99O\xc06\xe3?'
p1053
tp1054
Rp1055
tp1056
a(I1
g10
(g14
S']\xba\xe9\xe8\xcd2\xe3?'
p1057
tp1058
Rp1059
tp1060
a(I1
g10
(g14
S'\x81\xcf%^A2\xe3?'
p1061
tp1062
Rp1063
tp1064
a(I1
g10
(g14
S"\x1a\xdfe\xb9\x02'\xe3?"
p1065
tp1066
Rp1067
tp1068
a(I1
g10
(g14
S'\xaf\x9db\xb5\x11#\xe3?'
p1069
tp1070
Rp1071
tp1072
a(I1
g10
(g14
S'\xf1\xcf.\xe0\xd0\x13\xe3?'
p1073
tp1074
Rp1075
tp1076
a(I1
g10
(g14
S'=O\xf4\x80d\x12\xe3?'
p1077
tp1078
Rp1079
tp1080
a(I1
g10
(g14
S'\xc78\xbb\xe8\x8e\r\xe3?'
p1081
tp1082
Rp1083
tp1084
a(I1
g10
(g14
S'\r\xf9I\xe6\xf1\x0b\xe3?'
p1085
tp1086
Rp1087
tp1088
a(I1
g10
(g14
S'\xcd\xdb*h\xe5\x06\xe3?'
p1089
tp1090
Rp1091
tp1092
a(I1
g10
(g14
S'$\xe2\x07a\x92\x03\xe3?'
p1093
tp1094
Rp1095
tp1096
a(I1
g10
(g14
S'F\xc4\xa4<\x9f\xf8\xe2?'
p1097
tp1098
Rp1099
tp1100
a(I1
g10
(g14
S'\xb6\x95\xb7sH\xf8\xe2?'
p1101
tp1102
Rp1103
tp1104
a(I1
g10
(g14
S'\x97\xd0\xb0\xbf\xb7\xf3\xe2?'
p1105
tp1106
Rp1107
tp1108
a(I1
g10
(g14
S'\x9a\xb3\xae\xba\x8d\xeb\xe2?'
p1109
tp1110
Rp1111
tp1112
a(I1
g10
(g14
S'\xb1\x123\x05\xab\xd6\xe2?'
p1113
tp1114
Rp1115
tp1116
a(I1
g10
(g14
S'|\x82\xd0\xb4)\xc4\xe2?'
p1117
tp1118
Rp1119
tp1120
a(I1
g10
(g14
S'\x1d\xc5\xb3\xea\x01\xc3\xe2?'
p1121
tp1122
Rp1123
tp1124
a(I1
g10
(g14
S'M\xde\xd1(\x86\xc0\xe2?'
p1125
tp1126
Rp1127
tp1128
a(I1
g10
(g14
S'\xb1u\x8a\xf6\xbd\xbf\xe2?'
p1129
tp1130
Rp1131
tp1132
a(I1
g10
(g14
S'\x95\x0c\xa0\x93\xcd\xb5\xe2?'
p1133
tp1134
Rp1135
tp1136
a(I0
g10
(g14
S'[Ja\x1f\n\xa8\xe2?'
p1137
tp1138
Rp1139
tp1140
a(I1
g10
(g14
S'\x00\xcbP\xbfB\xa5\xe2?'
p1141
tp1142
Rp1143
tp1144
a(I1
g10
(g14
S'6uRB\x16\x94\xe2?'
p1145
tp1146
Rp1147
tp1148
a(I1
g10
(g14
S'x#J\x88\xc8\x89\xe2?'
p1149
tp1150
Rp1151
tp1152
a(I1
g10
(g14
S'b\x8b\n\xff^\x84\xe2?'
p1153
tp1154
Rp1155
tp1156
a(I1
g10
(g14
S'!\xe9\xaf\x9e\xc7{\xe2?'
p1157
tp1158
Rp1159
tp1160
a(I1
g10
(g14
S'\x88\xe8\xa7\x01\xa3z\xe2?'
p1161
tp1162
Rp1163
tp1164
a(I1
g10
(g14
S'\xd5F\xfbT\xd4s\xe2?'
p1165
tp1166
Rp1167
tp1168
a(I1
g10
(g14
S'\xfa\xe1\x17\xd8\xc8p\xe2?'
p1169
tp1170
Rp1171
tp1172
a(I1
g10
(g14
S'O\x01M\xf6\xef^\xe2?'
p1173
tp1174
Rp1175
tp1176
a(I1
g10
(g14
S'\xdck[\x19eU\xe2?'
p1177
tp1178
Rp1179
tp1180
a(I1
g10
(g14
S'\x13\x10\xc2x\x1cM\xe2?'
p1181
tp1182
Rp1183
tp1184
a(I1
g10
(g14
S'\x88\xedT\xaf\x7fF\xe2?'
p1185
tp1186
Rp1187
tp1188
a(I1
g10
(g14
S'\x82h\x83\xdb<F\xe2?'
p1189
tp1190
Rp1191
tp1192
a(I1
g10
(g14
S'\x0fC7\xf5sA\xe2?'
p1193
tp1194
Rp1195
tp1196
a(I1
g10
(g14
S'\x8a*\xb4\x11\xc52\xe2?'
p1197
tp1198
Rp1199
tp1200
a(I1
g10
(g14
S'\xdc\xc0\x9c\xe6\xb21\xe2?'
p1201
tp1202
Rp1203
tp1204
a(I1
g10
(g14
S'4\xa2\xfdk\xd9.\xe2?'
p1205
tp1206
Rp1207
tp1208
a(I1
g10
(g14
S'\xa1\xa3L\xae\x0e,\xe2?'
p1209
tp1210
Rp1211
tp1212
a(I1
g10
(g14
S'`E\x10\x82y(\xe2?'
p1213
tp1214
Rp1215
tp1216
a(I1
g10
(g14
S"\x92\x95E\x90\xcb'\xe2?"
p1217
tp1218
Rp1219
tp1220
a(I1
g10
(g14
S'\x0eY\x8bW\x1f\x15\xe2?'
p1221
tp1222
Rp1223
tp1224
a(I1
g10
(g14
S' \xd8\x18x\xee\x10\xe2?'
p1225
tp1226
Rp1227
tp1228
a(I1
g10
(g14
S'\xe3ckN^\r\xe2?'
p1229
tp1230
Rp1231
tp1232
a(I1
g10
(g14
S'F\xe9\r\xd3\x87\n\xe2?'
p1233
tp1234
Rp1235
tp1236
a(I1
g10
(g14
S'\x01\xcc\x1c\x99\xb6\t\xe2?'
p1237
tp1238
Rp1239
tp1240
a(I1
g10
(g14
S'\x06\xfb\xa6S:\xfb\xe1?'
p1241
tp1242
Rp1243
tp1244
a(I1
g10
(g14
S'\xcc\xeaus\xab\xfa\xe1?'
p1245
tp1246
Rp1247
tp1248
a(I1
g10
(g14
S'Z\xbc\x07\xff\x11\xd4\xe1?'
p1249
tp1250
Rp1251
tp1252
a(I1
g10
(g14
S'T:\xe5\xb3*\xcc\xe1?'
p1253
tp1254
Rp1255
tp1256
a(I1
g10
(g14
S'\xcf\xf0\xfb\x95\x90\xc7\xe1?'
p1257
tp1258
Rp1259
tp1260
a(I1
g10
(g14
S'\x1c-h\xea\x90\xbb\xe1?'
p1261
tp1262
Rp1263
tp1264
a(I1
g10
(g14
S'=\x9c\xd4cI\xb7\xe1?'
p1265
tp1266
Rp1267
tp1268
a(I1
g10
(g14
S'\xa4\x86\x10_\xb8\xb1\xe1?'
p1269
tp1270
Rp1271
tp1272
a(I1
g10
(g14
S'|\xaf&<\xd6\xa7\xe1?'
p1273
tp1274
Rp1275
tp1276
a(I1
g10
(g14
S'\x08 P\xda\x87\xa1\xe1?'
p1277
tp1278
Rp1279
tp1280
a(I1
g10
(g14
S'!L\xa5\x99\xcc\x97\xe1?'
p1281
tp1282
Rp1283
tp1284
a(I1
g10
(g14
S'`,\xe1/3\x8e\xe1?'
p1285
tp1286
Rp1287
tp1288
a(I1
g10
(g14
S'\xd2\xdb"r\xce\x8b\xe1?'
p1289
tp1290
Rp1291
tp1292
a(I1
g10
(g14
S'\xb4\x88\xa0\x01zl\xe1?'
p1293
tp1294
Rp1295
tp1296
a(I1
g10
(g14
S'\xd4\x8b\x1e\x99Ke\xe1?'
p1297
tp1298
Rp1299
tp1300
a(I1
g10
(g14
S'Dz\xd9-\x18[\xe1?'
p1301
tp1302
Rp1303
tp1304
a(I1
g10
(g14
S'@Or\x98vG\xe1?'
p1305
tp1306
Rp1307
tp1308
a(I1
g10
(g14
S'\xb7\xa7k\x85YG\xe1?'
p1309
tp1310
Rp1311
tp1312
a(I1
g10
(g14
S'*_"CkC\xe1?'
p1313
tp1314
Rp1315
tp1316
a(I1
g10
(g14
S'\x01H\xdb^\xa1;\xe1?'
p1317
tp1318
Rp1319
tp1320
a(I1
g10
(g14
S'\xd4\xd1\xb2\xb4g8\xe1?'
p1321
tp1322
Rp1323
tp1324
a(I1
g10
(g14
S'\x02k\xde\xb7\xda6\xe1?'
p1325
tp1326
Rp1327
tp1328
a(I1
g10
(g14
S'\\\xf3\xe4\xcf\xc4*\xe1?'
p1329
tp1330
Rp1331
tp1332
a(I1
g10
(g14
S'\x86\xb4\xcd\x1a\xd5\x1c\xe1?'
p1333
tp1334
Rp1335
tp1336
a(I1
g10
(g14
S'\xac\x11\xf8\x11\x08\x1c\xe1?'
p1337
tp1338
Rp1339
tp1340
a(I1
g10
(g14
S'\xacb\xf9.\xf4\xef\xe0?'
p1341
tp1342
Rp1343
tp1344
a(I1
g10
(g14
S'M\xc1%\xc4\xd6\xdf\xe0?'
p1345
tp1346
Rp1347
tp1348
a(I1
g10
(g14
S'\x8a\xeb\xa7d>\xc5\xe0?'
p1349
tp1350
Rp1351
tp1352
a(I1
g10
(g14
S'\xcf@V&r\xbf\xe0?'
p1353
tp1354
Rp1355
tp1356
a(I1
g10
(g14
S'\xd1\xa1\xe46#\xbc\xe0?'
p1357
tp1358
Rp1359
tp1360
a(I1
g10
(g14
S'\xba?\xe7^\x90\xa9\xe0?'
p1361
tp1362
Rp1363
tp1364
a(I1
g10
(g14
S'M\r\x14\x15F\xa5\xe0?'
p1365
tp1366
Rp1367
tp1368
a(I1
g10
(g14
S'\x9d\x0c\xb6\xb0`\xa2\xe0?'
p1369
tp1370
Rp1371
tp1372
a(I1
g10
(g14
S'\xec\xbb%\x94\xc0\x9e\xe0?'
p1373
tp1374
Rp1375
tp1376
a(I0
g10
(g14
S'\x88\xe0\x97@\xff\x9c\xe0?'
p1377
tp1378
Rp1379
tp1380
a(I1
g10
(g14
S'/T\xe5\xa5D\x9a\xe0?'
p1381
tp1382
Rp1383
tp1384
a(I1
g10
(g14
S'\xa2\x99\xcf|\xc7g\xe0?'
p1385
tp1386
Rp1387
tp1388
a(I1
g10
(g14
S'\x98[%8\x11c\xe0?'
p1389
tp1390
Rp1391
tp1392
a(I1
g10
(g14
S'O\xd4\xd6`\xeeb\xe0?'
p1393
tp1394
Rp1395
tp1396
a(I1
g10
(g14
S'\xe4\x87qU\xdbb\xe0?'
p1397
tp1398
Rp1399
tp1400
a(I1
g10
(g14
S'GM\x0e\xf7\x1cX\xe0?'
p1401
tp1402
Rp1403
tp1404
a(I1
g10
(g14
S'2|6*o0\xe0?'
p1405
tp1406
Rp1407
tp1408
a(I1
g10
(g14
S'\xae\x1d\xe7\xabi0\xe0?'
p1409
tp1410
Rp1411
tp1412
a(I1
g10
(g14
S'\x14\xc3\xb7\x84\xcd*\xe0?'
p1413
tp1414
Rp1415
tp1416
a(I1
g10
(g14
S'\xf73s\x15\x92\x1a\xe0?'
p1417
tp1418
Rp1419
tp1420
a(I1
g10
(g14
S'\xb3\x81\x81TC\x12\xe0?'
p1421
tp1422
Rp1423
tp1424
a(I1
g10
(g14
S'\x9c\xe9}\n\x03\x0f\xe0?'
p1425
tp1426
Rp1427
tp1428
a(I1
g10
(g14
S'\x9c\xf5@ \x93\n\xe0?'
p1429
tp1430
Rp1431
tp1432
a(I0
g10
(g14
S'o\x00\xb1\xb7\x84\x05\xe0?'
p1433
tp1434
Rp1435
tp1436
a(I1
g10
(g14
S'\x8ev\xc1\x12\xb3\xe6\xdf?'
p1437
tp1438
Rp1439
tp1440
a(I0
g10
(g14
S'Z\xfdJ\xa7\xa8\xe3\xdf?'
p1441
tp1442
Rp1443
tp1444
a(I1
g10
(g14
S']\xdf\xa7\xf5\x87\xdf\xdf?'
p1445
tp1446
Rp1447
tp1448
a(I1
g10
(g14
S'\xef\xf6I\t\x14\xc8\xdf?'
p1449
tp1450
Rp1451
tp1452
a(I0
g10
(g14
S'\x97.\xd2\xc5\xe8\xba\xdf?'
p1453
tp1454
Rp1455
tp1456
a(I1
g10
(g14
S'\xd4\xe4;~\xe9\xb4\xdf?'
p1457
tp1458
Rp1459
tp1460
a(I1
g10
(g14
S'\xa8t6\x8b\x83\x86\xdf?'
p1461
tp1462
Rp1463
tp1464
a(I1
g10
(g14
S'*\xe9\xc2k\x95g\xdf?'
p1465
tp1466
Rp1467
tp1468
a(I1
g10
(g14
S'1\xd2\xd6\xa7m:\xdf?'
p1469
tp1470
Rp1471
tp1472
a(I1
g10
(g14
S'\x03\xc8;2\x82$\xdf?'
p1473
tp1474
Rp1475
tp1476
a(I1
g10
(g14
S'45\xcd\xb2)\x00\xdf?'
p1477
tp1478
Rp1479
tp1480
a(I1
g10
(g14
S'\xe6U\xc4\x98\xfb\xfe\xde?'
p1481
tp1482
Rp1483
tp1484
a(I1
g10
(g14
S'\xe8\x97p\x9e\x07\xc9\xde?'
p1485
tp1486
Rp1487
tp1488
a(I1
g10
(g14
S'\x93\x97\xed\xf3\xcb\xc8\xde?'
p1489
tp1490
Rp1491
tp1492
a(I1
g10
(g14
S'\x9b"y\xae\xd0\xc0\xde?'
p1493
tp1494
Rp1495
tp1496
a(I1
g10
(g14
S'\xaaS\xe5`\xbe\xb3\xde?'
p1497
tp1498
Rp1499
tp1500
a(I1
g10
(g14
S'$\xf6\r\xd8\xa7\x9b\xde?'
p1501
tp1502
Rp1503
tp1504
a(I1
g10
(g14
S'\xbc\x95\x1f\x06m\x86\xde?'
p1505
tp1506
Rp1507
tp1508
a(I1
g10
(g14
S"\x85\xda\xf1\xc8'1\xde?"
p1509
tp1510
Rp1511
tp1512
a(I1
g10
(g14
S'\x94\xdcFr\xde\x10\xde?'
p1513
tp1514
Rp1515
tp1516
a(I1
g10
(g14
S'\xac0\xb9`\x96\xfd\xdd?'
p1517
tp1518
Rp1519
tp1520
a(I1
g10
(g14
S'A0\xbf\xc0\xbd\xb7\xdd?'
p1521
tp1522
Rp1523
tp1524
a(I1
g10
(g14
S'\x14\x03w\xc8\xc3\xa2\xdd?'
p1525
tp1526
Rp1527
tp1528
a(I0
g10
(g14
S'\x8c|\x8c\x8b|\x8c\xdd?'
p1529
tp1530
Rp1531
tp1532
a(I1
g10
(g14
S'\xac\xe3\xa8\x05\xc4>\xdd?'
p1533
tp1534
Rp1535
tp1536
a(I0
g10
(g14
S'\x04\xaa\x99W\x11\xe5\xdc?'
p1537
tp1538
Rp1539
tp1540
a(I1
g10
(g14
S'M\x1e\x80\xd0\t\xd2\xdc?'
p1541
tp1542
Rp1543
tp1544
a(I1
g10
(g14
S'\xc3;\xa5N\x80\xc6\xdc?'
p1545
tp1546
Rp1547
tp1548
a(I1
g10
(g14
S'\xb8\xbfh\x1eA\xc0\xdc?'
p1549
tp1550
Rp1551
tp1552
a(I1
g10
(g14
S'\x04\x83\x9a\xf03\xb8\xdc?'
p1553
tp1554
Rp1555
tp1556
a(I1
g10
(g14
S'\xeac\xa7x&\x9d\xdc?'
p1557
tp1558
Rp1559
tp1560
a(I1
g10
(g14
S'e\x8f\xceZ\xb8*\xdc?'
p1561
tp1562
Rp1563
tp1564
a(I1
g10
(g14
S"\xfb\xcc\xe6\xe0\xf6'\xdc?"
p1565
tp1566
Rp1567
tp1568
a(I1
g10
(g14
S'4\x18\xe0\x16\xda\xb3\xdb?'
p1569
tp1570
Rp1571
tp1572
a(I0
g10
(g14
S'\xba\x8b\x9d\x99\x85\x92\xdb?'
p1573
tp1574
Rp1575
tp1576
a(I1
g10
(g14
S'W\xc1/\\:z\xdb?'
p1577
tp1578
Rp1579
tp1580
a(I0
g10
(g14
S'\xf4^\xfcK\x90e\xdb?'
p1581
tp1582
Rp1583
tp1584
a(I1
g10
(g14
S'mC-\x8ewE\xdb?'
p1585
tp1586
Rp1587
tp1588
a(I1
g10
(g14
S"\xdd5\xfc\xd9\xb7'\xdb?"
p1589
tp1590
Rp1591
tp1592
a(I0
g10
(g14
S'\x0e\x15\xa7ea\x01\xdb?'
p1593
tp1594
Rp1595
tp1596
a(I1
g10
(g14
S'\x1d!\x14\x8a\x00\xc5\xda?'
p1597
tp1598
Rp1599
tp1600
a(I0
g10
(g14
S'\x11\xa1\xa0 \xd6\x9d\xda?'
p1601
tp1602
Rp1603
tp1604
a(I1
g10
(g14
S'l\xeb\xfc\xfcW\x95\xda?'
p1605
tp1606
Rp1607
tp1608
a(I0
g10
(g14
S'\xf6\x01\xf6[\x83M\xda?'
p1609
tp1610
Rp1611
tp1612
a(I1
g10
(g14
S'.\xed\x07\xeb\x7fM\xda?'
p1613
tp1614
Rp1615
tp1616
a(I1
g10
(g14
S'\xc9h\x93\x8c(\xda\xd9?'
p1617
tp1618
Rp1619
tp1620
a(I0
g10
(g14
S'x\x9ec\x1c\x0f\xa1\xd9?'
p1621
tp1622
Rp1623
tp1624
a(I0
g10
(g14
S'=<\xf7e\xb3w\xd9?'
p1625
tp1626
Rp1627
tp1628
a(I1
g10
(g14
S'l\x1b\x97\x07\x7fN\xd9?'
p1629
tp1630
Rp1631
tp1632
a(I0
g10
(g14
S'\xed\x9cb\xc8\xa8@\xd9?'
p1633
tp1634
Rp1635
tp1636
a(I1
g10
(g14
S'\xb6\xde\xa5/)6\xd9?'
p1637
tp1638
Rp1639
tp1640
a(I0
g10
(g14
S'\xd6\xf0\x8bgb\xae\xd8?'
p1641
tp1642
Rp1643
tp1644
a(I1
g10
(g14
S'\x91~\xee\xf5\x15\xad\xd8?'
p1645
tp1646
Rp1647
tp1648
a(I1
g10
(g14
S'D\xd5gF\x9f\x85\xd8?'
p1649
tp1650
Rp1651
tp1652
a(I0
g10
(g14
S'S\xc12W\x83{\xd8?'
p1653
tp1654
Rp1655
tp1656
a(I1
g10
(g14
S'\xd2\xc0\x07\xe1\x0bl\xd8?'
p1657
tp1658
Rp1659
tp1660
a(I0
g10
(g14
S'1\xf4\xf35m>\xd8?'
p1661
tp1662
Rp1663
tp1664
a(I0
g10
(g14
S'\x89\x03\xc4 >\xf8\xd7?'
p1665
tp1666
Rp1667
tp1668
a(I1
g10
(g14
S'\xaaC1"\x8e\xc1\xd7?'
p1669
tp1670
Rp1671
tp1672
a(I1
g10
(g14
S'\x8c>\x05&\xa2\xbc\xd7?'
p1673
tp1674
Rp1675
tp1676
a(I0
g10
(g14
S'?]\xa7\x1a\x95S\xd7?'
p1677
tp1678
Rp1679
tp1680
a(I0
g10
(g14
S'\xdc)n\x194E\xd7?'
p1681
tp1682
Rp1683
tp1684
a(I1
g10
(g14
S'\x8e\x1d\x0b\x00%3\xd7?'
p1685
tp1686
Rp1687
tp1688
a(I1
g10
(g14
S'\xbb3\xcc\xdbo/\xd7?'
p1689
tp1690
Rp1691
tp1692
a(I0
g10
(g14
S'3\x15\x03C/\x0f\xd7?'
p1693
tp1694
Rp1695
tp1696
a(I1
g10
(g14
S'\xf8\x8aU\x11\xb2\xe7\xd6?'
p1697
tp1698
Rp1699
tp1700
a(I1
g10
(g14
S'4xk\xf6K\xda\xd6?'
p1701
tp1702
Rp1703
tp1704
a(I1
g10
(g14
S'DS\xbau\xbc\xcf\xd6?'
p1705
tp1706
Rp1707
tp1708
a(I0
g10
(g14
S'\xd3k\xfd\x8f\x03\xcd\xd6?'
p1709
tp1710
Rp1711
tp1712
a(I0
g10
(g14
S'\x7f;\xb8\x96bJ\xd6?'
p1713
tp1714
Rp1715
tp1716
a(I0
g10
(g14
S'\xe4-\xb0\xa7\xf7\n\xd6?'
p1717
tp1718
Rp1719
tp1720
a(I1
g10
(g14
S'\x80\xc8\xaa\x02\xb4\xfc\xd5?'
p1721
tp1722
Rp1723
tp1724
a(I1
g10
(g14
S'\xac\xc3\xaf8\xd2\xee\xd5?'
p1725
tp1726
Rp1727
tp1728
a(I1
g10
(g14
S'\xcd\x9ff\x10\xd2\xb4\xd5?'
p1729
tp1730
Rp1731
tp1732
a(I1
g10
(g14
S'\x8c\xbb\xca\x93\xe3A\xd5?'
p1733
tp1734
Rp1735
tp1736
a(I0
g10
(g14
S'\x1a\x8a\xb8\xd2\xa8=\xd5?'
p1737
tp1738
Rp1739
tp1740
a(I0
g10
(g14
S"\xa6/'\xf8\x027\xd5?"
p1741
tp1742
Rp1743
tp1744
a(I0
g10
(g14
S'\x9f>\x01q\x84\x18\xd5?'
p1745
tp1746
Rp1747
tp1748
a(I0
g10
(g14
S'\x9f\xb8*\x19\xcd\xd8\xd4?'
p1749
tp1750
Rp1751
tp1752
a(I0
g10
(g14
S'HB\xcasM\x86\xd4?'
p1753
tp1754
Rp1755
tp1756
a(I0
g10
(g14
S':7\rmj@\xd4?'
p1757
tp1758
Rp1759
tp1760
a(I0
g10
(g14
S'\xec\x92=)\x82#\xd4?'
p1761
tp1762
Rp1763
tp1764
a(I0
g10
(g14
S'\xfa8\x16\x06\xda\xd7\xd3?'
p1765
tp1766
Rp1767
tp1768
a(I0
g10
(g14
S'\x06\x89\xa2\x86\xea\xcc\xd3?'
p1769
tp1770
Rp1771
tp1772
a(I0
g10
(g14
S'\x18\x1a\\\xbdo\xa8\xd3?'
p1773
tp1774
Rp1775
tp1776
a(I0
g10
(g14
S')om\xebd\x96\xd3?'
p1777
tp1778
Rp1779
tp1780
a(I0
g10
(g14
S'm\xbe\xda/f{\xd3?'
p1781
tp1782
Rp1783
tp1784
a(I0
g10
(g14
S'&\xe3#\x96 .\xd3?'
p1785
tp1786
Rp1787
tp1788
a(I0
g10
(g14
S'\x9a\xc9\xf5\xeb\x81\x14\xd3?'
p1789
tp1790
Rp1791
tp1792
a(I1
g10
(g14
S'm,\x13\x8d\x96\r\xd3?'
p1793
tp1794
Rp1795
tp1796
a(I0
g10
(g14
S'4\x81\x08t:\x0c\xd3?'
p1797
tp1798
Rp1799
tp1800
a(I1
g10
(g14
S'\xb5v`\xc9$\xa8\xd2?'
p1801
tp1802
Rp1803
tp1804
a(I0
g10
(g14
S'\xb3\xf7~\x83sx\xd2?'
p1805
tp1806
Rp1807
tp1808
a(I0
g10
(g14
S'`\xb4\xc5\xa7\x95@\xd2?'
p1809
tp1810
Rp1811
tp1812
a(I0
g10
(g14
S'\xe3\x1a&s\xdd\x1b\xd2?'
p1813
tp1814
Rp1815
tp1816
a(I0
g10
(g14
S'\x9b\x86\xc4\xdf\xb8\x12\xd2?'
p1817
tp1818
Rp1819
tp1820
a(I0
g10
(g14
S'\xae\xf3\x97\xf3\n\xf5\xd1?'
p1821
tp1822
Rp1823
tp1824
a(I1
g10
(g14
S';\x1e\xa7L\x02\xd1\xd1?'
p1825
tp1826
Rp1827
tp1828
a(I0
g10
(g14
S'\x8c\xb8\xe0\xc9\xc2\xb7\xd1?'
p1829
tp1830
Rp1831
tp1832
a(I0
g10
(g14
S'\xfd\x88\x8bwO\xb1\xd1?'
p1833
tp1834
Rp1835
tp1836
a(I0
g10
(g14
S'\xb3\xcaZ\xd5\xc8\x90\xd1?'
p1837
tp1838
Rp1839
tp1840
a(I0
g10
(g14
S'\xdcW2\xb0Lv\xd1?'
p1841
tp1842
Rp1843
tp1844
a(I1
g10
(g14
S'\xf5\xa0&\xc7\xe6=\xd1?'
p1845
tp1846
Rp1847
tp1848
a(I0
g10
(g14
S"\x7f\xf2'\x7f\xf2'\xd1?"
p1849
tp1850
Rp1851
tp1852
a(I0
g10
(g14
S'Gp\xb1\xdc\x7f#\xd1?'
p1853
tp1854
Rp1855
tp1856
a(I1
g10
(g14
S'[]\xcb\xdeH\x1d\xd1?'
p1857
tp1858
Rp1859
tp1860
a(I0
g10
(g14
S'\xbaO\x81\xd2\x91\x04\xd1?'
p1861
tp1862
Rp1863
tp1864
a(I0
g10
(g14
S'\x017\xccR\xef\xea\xd0?'
p1865
tp1866
Rp1867
tp1868
a(I0
g10
(g14
S'3b\x89a{\xd7\xd0?'
p1869
tp1870
Rp1871
tp1872
a(I0
g10
(g14
S'\n:\x95\xae\xaa\xd2\xd0?'
p1873
tp1874
Rp1875
tp1876
a(I0
g10
(g14
S'\x14-\xd1\x12-\xd1\xd0?'
p1877
tp1878
Rp1879
tp1880
a(I0
g10
(g14
S'\x86#\x8d9\xe4\xb8\xd0?'
p1881
tp1882
Rp1883
tp1884
a(I0
g10
(g14
S'u\x80\xad\xe4\xbd\xb7\xd0?'
p1885
tp1886
Rp1887
tp1888
a(I0
g10
(g14
S'\xf4\xa5\xc5\xc0r\x92\xd0?'
p1889
tp1890
Rp1891
tp1892
a(I1
g10
(g14
S'\xef\x1d\xf8\xa8!\x8c\xd0?'
p1893
tp1894
Rp1895
tp1896
a(I0
g10
(g14
S'\xef."V\x95\x88\xd0?'
p1897
tp1898
Rp1899
tp1900
a(I0
g10
(g14
S'v\xcdJ\x99\xcb\x80\xd0?'
p1901
tp1902
Rp1903
tp1904
a(I0
g10
(g14
S'\xd6R\xaba\x81e\xd0?'
p1905
tp1906
Rp1907
tp1908
a(I0
g10
(g14
S'\xa4\xcf\x8eioZ\xd0?'
p1909
tp1910
Rp1911
tp1912
a(I0
g10
(g14
S'\xecm\x91\xd7\xa4X\xd0?'
p1913
tp1914
Rp1915
tp1916
a(I0
g10
(g14
S'A\xc2\x91\xebu7\xd0?'
p1917
tp1918
Rp1919
tp1920
a(I0
g10
(g14
S'\xba\x97t\xa7\xa96\xd0?'
p1921
tp1922
Rp1923
tp1924
a(I0
g10
(g14
S'\xbb\x8aOi\xd20\xd0?'
p1925
tp1926
Rp1927
tp1928
a(I0
g10
(g14
S'\x7f\x96\x86y\xb7\r\xd0?'
p1929
tp1930
Rp1931
tp1932
a(I0
g10
(g14
S'\x8e\xcfDj\x07\xf1\xcf?'
p1933
tp1934
Rp1935
tp1936
a(I0
g10
(g14
S'\xafEh\xf3\x92\xa7\xcf?'
p1937
tp1938
Rp1939
tp1940
a(I1
g10
(g14
S'Z\xeaTd\xc1\xf8\xce?'
p1941
tp1942
Rp1943
tp1944
a(I1
g10
(g14
S'\xf3\xbc\xad\xa7b\xe8\xce?'
p1945
tp1946
Rp1947
tp1948
a(I0
g10
(g14
S'\\\x82\x0e\xb5G\xb3\xce?'
p1949
tp1950
Rp1951
tp1952
a(I0
g10
(g14
S'(\xb0\x87\xb7yF\xce?'
p1953
tp1954
Rp1955
tp1956
a(I0
g10
(g14
S'\x00\x0b\xfdP\xc3\x1b\xce?'
p1957
tp1958
Rp1959
tp1960
a(I0
g10
(g14
S'\xd4\n\x87\x99\xca\xcd\xcd?'
p1961
tp1962
Rp1963
tp1964
a(I0
g10
(g14
S'4\xe3\x8a\xc4\xc0q\xcd?'
p1965
tp1966
Rp1967
tp1968
a(I0
g10
(g14
S'\xf7\x96HJ\xfcT\xcd?'
p1969
tp1970
Rp1971
tp1972
a(I0
g10
(g14
S'\x97\xe7VU.S\xcd?'
p1973
tp1974
Rp1975
tp1976
a(I0
g10
(g14
S'\xd2!\x9cV\x06%\xcd?'
p1977
tp1978
Rp1979
tp1980
a(I0
g10
(g14
S"(\x82t'\xda\x10\xcd?"
p1981
tp1982
Rp1983
tp1984
a(I1
g10
(g14
S"\xe6'\xc4Y\xf9\t\xcd?"
p1985
tp1986
Rp1987
tp1988
a(I0
g10
(g14
S'\x1d\xb7\x936\n\xf4\xcc?'
p1989
tp1990
Rp1991
tp1992
a(I0
g10
(g14
S'4\xab\xed\xe1\xf2\xce\xcc?'
p1993
tp1994
Rp1995
tp1996
a(I0
g10
(g14
S'\x14F\xdf_\x85\xb3\xcc?'
p1997
tp1998
Rp1999
tp2000
a(I0
g10
(g14
S'\xed\x0c\xb0{\xcf\xa5\xcc?'
p2001
tp2002
Rp2003
tp2004
a(I0
g10
(g14
S'\x93f2\x89\x8f\x8e\xcc?'
p2005
tp2006
Rp2007
tp2008
a(I0
g10
(g14
S'FSU\xb7un\xcc?'
p2009
tp2010
Rp2011
tp2012
a(I1
g10
(g14
S'\xf4\x91^\xbd\xca\xef\xcb?'
p2013
tp2014
Rp2015
tp2016
a(I0
g10
(g14
S'\x9d\x049vW\xd6\xcb?'
p2017
tp2018
Rp2019
tp2020
a(I0
g10
(g14
S'\xa4\xaf\xad\xc14\x99\xcb?'
p2021
tp2022
Rp2023
tp2024
a(I0
g10
(g14
S'\x03Eb6x\x95\xcb?'
p2025
tp2026
Rp2027
tp2028
a(I0
g10
(g14
S': \t\xf0Y\x7f\xcb?'
p2029
tp2030
Rp2031
tp2032
a(I0
g10
(g14
S'\xfa\x8d)\xec\x07Y\xcb?'
p2033
tp2034
Rp2035
tp2036
a(I0
g10
(g14
S'Z\x0c\x06\xd9\xb4\xef\xca?'
p2037
tp2038
Rp2039
tp2040
a(I0
g10
(g14
S'\x93j|\xd6\x9c\xca\xca?'
p2041
tp2042
Rp2043
tp2044
a(I0
g10
(g14
S'\xfb\n\x94\xbe\x00\xbd\xca?'
p2045
tp2046
Rp2047
tp2048
a(I0
g10
(g14
S'\x89?\x94\xfbF\xbc\xca?'
p2049
tp2050
Rp2051
tp2052
a(I0
g10
(g14
S'\xb7~\xcf!^\x80\xca?'
p2053
tp2054
Rp2055
tp2056
a(I0
g10
(g14
S'\xc6\xd9\n\x0e\xd6v\xca?'
p2057
tp2058
Rp2059
tp2060
a(I0
g10
(g14
S'\xac\x0e\xb0\xe6\x9f<\xca?'
p2061
tp2062
Rp2063
tp2064
a(I0
g10
(g14
S'R\xb1\xe4\xc6g9\xca?'
p2065
tp2066
Rp2067
tp2068
a(I0
g10
(g14
S'x\x0b\xc0\xccr\x0b\xca?'
p2069
tp2070
Rp2071
tp2072
a(I0
g10
(g14
S'M\xda\xdb\xf9\xd8\xbe\xc9?'
p2073
tp2074
Rp2075
tp2076
a(I0
g10
(g14
S'\x83`{\xe3M\x97\xc9?'
p2077
tp2078
Rp2079
tp2080
a(I0
g10
(g14
S':Q$_\xfe\x86\xc9?'
p2081
tp2082
Rp2083
tp2084
a(I0
g10
(g14
S'3Xd\xc0\x1aZ\xc9?'
p2085
tp2086
Rp2087
tp2088
a(I0
g10
(g14
S'\x9d\xa0\xfd\xc3\xb1O\xc9?'
p2089
tp2090
Rp2091
tp2092
a(I0
g10
(g14
S'\x7f\xeaG[\xb6/\xc9?'
p2093
tp2094
Rp2095
tp2096
a(I0
g10
(g14
S'h\x905\xe5S\x10\xc9?'
p2097
tp2098
Rp2099
tp2100
a(I0
g10
(g14
S'\xe63\xd2\xe9\x10\x0c\xc9?'
p2101
tp2102
Rp2103
tp2104
a(I0
g10
(g14
S'\x1c \xd5\x8b]\xdf\xc8?'
p2105
tp2106
Rp2107
tp2108
a(I0
g10
(g14
S'\x9f\x04\xa6\xef\xbc\xc4\xc8?'
p2109
tp2110
Rp2111
tp2112
a(I0
g10
(g14
S'\xc6\xd88_\x8d\xc3\xc8?'
p2113
tp2114
Rp2115
tp2116
a(I0
g10
(g14
S'\x9c\xa1_\x11s\xa5\xc8?'
p2117
tp2118
Rp2119
tp2120
a(I0
g10
(g14
S'M\x88\xdb\xa8\x17\x9e\xc8?'
p2121
tp2122
Rp2123
tp2124
a(I0
g10
(g14
S'\xb3\xb1\xf9fW4\xc8?'
p2125
tp2126
Rp2127
tp2128
a(I0
g10
(g14
S'\xa5\xbd:|\xaf3\xc8?'
p2129
tp2130
Rp2131
tp2132
a(I0
g10
(g14
S'X\xb9\xad\x1d^\x03\xc8?'
p2133
tp2134
Rp2135
tp2136
a(I0
g10
(g14
S'\xd2t\x13\xc1u\xf8\xc7?'
p2137
tp2138
Rp2139
tp2140
a(I0
g10
(g14
S'z\xf8\xeed/\xb6\xc7?'
p2141
tp2142
Rp2143
tp2144
a(I0
g10
(g14
S'c+\x0e\xcb@\xa1\xc7?'
p2145
tp2146
Rp2147
tp2148
a(I1
g10
(g14
S'\x9bu\xa6\x93\x17M\xc7?'
p2149
tp2150
Rp2151
tp2152
a(I0
g10
(g14
S'\xca\xe7NZ\xaaD\xc7?'
p2153
tp2154
Rp2155
tp2156
a(I0
g10
(g14
S'1\xf1T]*\x1e\xc7?'
p2157
tp2158
Rp2159
tp2160
a(I0
g10
(g14
S'\x97A\xd8\xe5J\xca\xc6?'
p2161
tp2162
Rp2163
tp2164
a(I0
g10
(g14
S'\xfc\xaf\xbfk#\xac\xc6?'
p2165
tp2166
Rp2167
tp2168
a(I0
g10
(g14
S'\x9c\xde\x02U\xe2\x96\xc6?'
p2169
tp2170
Rp2171
tp2172
a(I0
g10
(g14
S'%\x82:\xea&\x90\xc6?'
p2173
tp2174
Rp2175
tp2176
a(I0
g10
(g14
S'\x98n\x12\x83\xc0\xca\xc5?'
p2177
tp2178
Rp2179
tp2180
a(I0
g10
(g14
S'\xef6o\xb8\xf5\xa9\xc5?'
p2181
tp2182
Rp2183
tp2184
a(I0
g10
(g14
S'\xc0\xaa\x91\x90&\x8b\xc5?'
p2185
tp2186
Rp2187
tp2188
a(I0
g10
(g14
S'\xcd\xa3\xdf\x85\x8c\x82\xc5?'
p2189
tp2190
Rp2191
tp2192
a(I0
g10
(g14
S'\xe1\xa7\x1aG\x0e\x81\xc5?'
p2193
tp2194
Rp2195
tp2196
a(I0
g10
(g14
S'\xe4\xa9k7Xv\xc5?'
p2197
tp2198
Rp2199
tp2200
a(I0
g10
(g14
S'2\x0ct\x14ES\xc5?'
p2201
tp2202
Rp2203
tp2204
a(I0
g10
(g14
S'N\x92C\xbe\xcfM\xc5?'
p2205
tp2206
Rp2207
tp2208
a(I0
g10
(g14
S'\xbdL\x82y\xffB\xc5?'
p2209
tp2210
Rp2211
tp2212
a(I0
g10
(g14
S'\x0e\xaf@\x0f\\.\xc5?'
p2213
tp2214
Rp2215
tp2216
a(I0
g10
(g14
S'n\x08\xe3\xbf\xc0\x01\xc5?'
p2217
tp2218
Rp2219
tp2220
a(I0
g10
(g14
S'\xf8g\xb0\xc7\xe3\xa9\xc4?'
p2221
tp2222
Rp2223
tp2224
a(I0
g10
(g14
S'\x7f\xfc\x9d\x9eK\xa7\xc4?'
p2225
tp2226
Rp2227
tp2228
a(I0
g10
(g14
S'J\xd4ln\xd2\xa2\xc4?'
p2229
tp2230
Rp2231
tp2232
a(I0
g10
(g14
S'\xe4\x99V\x88\n\x94\xc4?'
p2233
tp2234
Rp2235
tp2236
a(I0
g10
(g14
S'KU\x9c\xa6\xe4^\xc4?'
p2237
tp2238
Rp2239
tp2240
a(I1
g10
(g14
S'\x18(\xf1j\xaa-\xc4?'
p2241
tp2242
Rp2243
tp2244
a(I1
g10
(g14
S'\x13c{<\xed\x17\xc4?'
p2245
tp2246
Rp2247
tp2248
a(I0
g10
(g14
S'\x0b\x0c\x1c*v\x16\xc4?'
p2249
tp2250
Rp2251
tp2252
a(I0
g10
(g14
S'\xc8\xce\x1f\xa5Q\t\xc4?'
p2253
tp2254
Rp2255
tp2256
a(I0
g10
(g14
S'vQ@a\xa3\xf8\xc3?'
p2257
tp2258
Rp2259
tp2260
a(I0
g10
(g14
S'\x98v\xff&9\xf5\xc3?'
p2261
tp2262
Rp2263
tp2264
a(I0
g10
(g14
S'N\x98\x9e\xe2\xd3\xde\xc3?'
p2265
tp2266
Rp2267
tp2268
a(I0
g10
(g14
S'w\xf42\x81\xcb\xd6\xc3?'
p2269
tp2270
Rp2271
tp2272
a(I0
g10
(g14
S'\xdd\x1e\x97\x81\x8f\xd4\xc3?'
p2273
tp2274
Rp2275
tp2276
a(I0
g10
(g14
S'\x11Z\x15\xfd\xab\xcd\xc3?'
p2277
tp2278
Rp2279
tp2280
a(I0
g10
(g14
S'\x19\xe3\xdcf"\xb1\xc3?'
p2281
tp2282
Rp2283
tp2284
a(I0
g10
(g14
S'\x16*\xa5\xe6\xa5\x9e\xc3?'
p2285
tp2286
Rp2287
tp2288
a(I0
g10
(g14
S'\xf8\xbe\x05\x86=\x87\xc3?'
p2289
tp2290
Rp2291
tp2292
a(I0
g10
(g14
S'I\x02J\xbc\xee\x80\xc3?'
p2293
tp2294
Rp2295
tp2296
a(I0
g10
(g14
S'|\xab2?\xa1[\xc3?'
p2297
tp2298
Rp2299
tp2300
a(I0
g10
(g14
S'\xad\x92\xc1\x03\xa99\xc3?'
p2301
tp2302
Rp2303
tp2304
a(I0
g10
(g14
S"'\x08H\xc4\xd1-\xc3?"
p2305
tp2306
Rp2307
tp2308
a(I0
g10
(g14
S'\x7f\xd3W;\x86\x18\xc3?'
p2309
tp2310
Rp2311
tp2312
a(I0
g10
(g14
S']\xd0\x05]\xd0\x05\xc3?'
p2313
tp2314
Rp2315
tp2316
a(I0
g10
(g14
S'\x0c\x1eXV\xae\xff\xc2?'
p2317
tp2318
Rp2319
tp2320
a(I0
g10
(g14
S'\\\xae\x8c\xd3.\xff\xc2?'
p2321
tp2322
Rp2323
tp2324
a(I0
g10
(g14
S'j\x8a\xeb\xea\xfc\xf2\xc2?'
p2325
tp2326
Rp2327
tp2328
a(I0
g10
(g14
S'\x14\x8a\x15\x00\xdc\xcd\xc2?'
p2329
tp2330
Rp2331
tp2332
a(I0
g10
(g14
S'\xb4\x84\x8a\xe7\xb7\xbd\xc2?'
p2333
tp2334
Rp2335
tp2336
a(I0
g10
(g14
S'\xd9S\xac8w\xaa\xc2?'
p2337
tp2338
Rp2339
tp2340
a(I0
g10
(g14
S'9\xf7\xd9\x05\xc4\xa6\xc2?'
p2341
tp2342
Rp2343
tp2344
a(I0
g10
(g14
S'G\xc8W\x8c\xfa\xa5\xc2?'
p2345
tp2346
Rp2347
tp2348
a(I0
g10
(g14
S'\x05a\xe3\\w[\xc2?'
p2349
tp2350
Rp2351
tp2352
a(I0
g10
(g14
S'|f\x8c\xba\xca>\xc2?'
p2353
tp2354
Rp2355
tp2356
a(I0
g10
(g14
S"\xed\x8d\x9c\x86'6\xc2?"
p2357
tp2358
Rp2359
tp2360
a(I0
g10
(g14
S'\x1b\xb0\xd8.^ \xc2?'
p2361
tp2362
Rp2363
tp2364
a(I0
g10
(g14
S'\xe8\x96\x98\x1e^\x07\xc2?'
p2365
tp2366
Rp2367
tp2368
a(I0
g10
(g14
S'\x03\xab\x07\x91\x88\xee\xc1?'
p2369
tp2370
Rp2371
tp2372
a(I0
g10
(g14
S'\xf87\x8a\x00V\xed\xc1?'
p2373
tp2374
Rp2375
tp2376
a(I0
g10
(g14
S'Tc\ta\xe9\xd9\xc1?'
p2377
tp2378
Rp2379
tp2380
a(I0
g10
(g14
S'\xfc\xf0\x19v\x05\xc8\xc1?'
p2381
tp2382
Rp2383
tp2384
a(I0
g10
(g14
S'\xfe\x1c`\x14\x95\xc5\xc1?'
p2385
tp2386
Rp2387
tp2388
a(I0
g10
(g14
S'\xe5\x16L\xfcs\xc0\xc1?'
p2389
tp2390
Rp2391
tp2392
a(I0
g10
(g14
S'\x97L\x12?Q\x8b\xc1?'
p2393
tp2394
Rp2395
tp2396
a(I0
g10
(g14
S'\xa0I\xa7N\x91\x88\xc1?'
p2397
tp2398
Rp2399
tp2400
a(I1
g10
(g14
S'\xf1&_\x93\xcd~\xc1?'
p2401
tp2402
Rp2403
tp2404
a(I0
g10
(g14
S'?\xdex\xae6t\xc1?'
p2405
tp2406
Rp2407
tp2408
a(I0
g10
(g14
S'\xec\x12\xf9\xc1\xb6i\xc1?'
p2409
tp2410
Rp2411
tp2412
a(I0
g10
(g14
S'\xa8\xc7\x87V\x0fi\xc1?'
p2413
tp2414
Rp2415
tp2416
a(I0
g10
(g14
S'\x04\xb0\x05\xfa\xd8a\xc1?'
p2417
tp2418
Rp2419
tp2420
a(I0
g10
(g14
S'\xf8\xd3\x12=\x06a\xc1?'
p2421
tp2422
Rp2423
tp2424
a(I0
g10
(g14
S'l\xb4Fk\xb4F\xc1?'
p2425
tp2426
Rp2427
tp2428
a(I0
g10
(g14
S'?(\x8e\xb9<<\xc1?'
p2429
tp2430
Rp2431
tp2432
a(I0
g10
(g14
S'\x18!\x84s\xcb7\xc1?'
p2433
tp2434
Rp2435
tp2436
a(I0
g10
(g14
S'\xd0J_\rU6\xc1?'
p2437
tp2438
Rp2439
tp2440
a(I0
g10
(g14
S'\x84\xcf4r\xeb\n\xc1?'
p2441
tp2442
Rp2443
tp2444
a(I0
g10
(g14
S'\xa4\xceMF\x16\x08\xc1?'
p2445
tp2446
Rp2447
tp2448
a(I0
g10
(g14
S'\xf5\xae~\xad\xcd\x03\xc1?'
p2449
tp2450
Rp2451
tp2452
a(I0
g10
(g14
S'\x8a@ac\x93\xfe\xc0?'
p2453
tp2454
Rp2455
tp2456
a(I0
g10
(g14
S'#\xd2]\x1d\x8f\xf5\xc0?'
p2457
tp2458
Rp2459
tp2460
a(I0
g10
(g14
S'\xc6\xe47\xd0\xbb\xdb\xc0?'
p2461
tp2462
Rp2463
tp2464
a(I0
g10
(g14
S'\x19>:\xf3\x90\xd7\xc0?'
p2465
tp2466
Rp2467
tp2468
a(I0
g10
(g14
S'lZ\xbc\xac\xf8\xce\xc0?'
p2469
tp2470
Rp2471
tp2472
a(I0
g10
(g14
S'\x1c\x13\x12\xb7v\xc9\xc0?'
p2473
tp2474
Rp2475
tp2476
a(I0
g10
(g14
S'0\xb8\x05\xab\xcc\xb3\xc0?'
p2477
tp2478
Rp2479
tp2480
a(I0
g10
(g14
S'\x81W/\xbaL\xab\xc0?'
p2481
tp2482
Rp2483
tp2484
a(I0
g10
(g14
S"\x9f'Z\xc3n\x8e\xc0?"
p2485
tp2486
Rp2487
tp2488
a(I0
g10
(g14
S'6\xb2\x13{\x80r\xc0?'
p2489
tp2490
Rp2491
tp2492
a(I0
g10
(g14
S'\xd0\xcaQrqq\xc0?'
p2493
tp2494
Rp2495
tp2496
a(I0
g10
(g14
S'\x16\xfa:I-n\xc0?'
p2497
tp2498
Rp2499
tp2500
a(I0
g10
(g14
S'\x9d\x08\xa9\x9bOh\xc0?'
p2501
tp2502
Rp2503
tp2504
a(I0
g10
(g14
S"\x0e\x8e\xd5'\xfee\xc0?"
p2505
tp2506
Rp2507
tp2508
a(I0
g10
(g14
S'\xff \xed\xa5@W\xc0?'
p2509
tp2510
Rp2511
tp2512
a(I0
g10
(g14
S'\xad\xae\xd3R\x85?\xc0?'
p2513
tp2514
Rp2515
tp2516
a(I0
g10
(g14
S'\x81\n=\xf1b8\xc0?'
p2517
tp2518
Rp2519
tp2520
a(I0
g10
(g14
S'\x18\xf13X\xaa7\xc0?'
p2521
tp2522
Rp2523
tp2524
a(I0
g10
(g14
S'\xff\xf3\xa0\xd6\x97\x11\xc0?'
p2525
tp2526
Rp2527
tp2528
a(I0
g10
(g14
S'\r\x03g\xa6\x9c\x00\xc0?'
p2529
tp2530
Rp2531
tp2532
a(I0
g10
(g14
S'/\x97\xab\xaef\xd9\xbf?'
p2533
tp2534
Rp2535
tp2536
a(I0
g10
(g14
S'\t\xf5\x9d\x1e\xbe\xd6\xbf?'
p2537
tp2538
Rp2539
tp2540
a(I0
g10
(g14
S'\x8f\xca\xe1\xadj\xbe\xbf?'
p2541
tp2542
Rp2543
tp2544
a(I0
g10
(g14
S'`@\xc7p"\xb2\xbf?'
p2545
tp2546
Rp2547
tp2548
a(I0
g10
(g14
S'\x92\xfb\x9c]\n\x9f\xbf?'
p2549
tp2550
Rp2551
tp2552
a(I0
g10
(g14
S'w\x17\x88\x06\xbf\x8c\xbf?'
p2553
tp2554
Rp2555
tp2556
a(I0
g10
(g14
S'\x93\x1c\x1bj\xc0\x8b\xbf?'
p2557
tp2558
Rp2559
tp2560
a(I0
g10
(g14
S'\xef\xdd\xa8\xabZ\x87\xbf?'
p2561
tp2562
Rp2563
tp2564
a(I0
g10
(g14
S'w\xe3Y\xb7\x9c]\xbf?'
p2565
tp2566
Rp2567
tp2568
a(I0
g10
(g14
S'#\x07\xf0\x170L\xbf?'
p2569
tp2570
Rp2571
tp2572
a(I0
g10
(g14
S'V!K@\x8e\xf4\xbe?'
p2573
tp2574
Rp2575
tp2576
a(I0
g10
(g14
S'\xaf\x0b\xe1\xbd@\xde\xbe?'
p2577
tp2578
Rp2579
tp2580
a(I0
g10
(g14
S'\x12\x10D\xa9\xc4\xce\xbe?'
p2581
tp2582
Rp2583
tp2584
a(I0
g10
(g14
S'\xe6~5\xb5(\xc6\xbe?'
p2585
tp2586
Rp2587
tp2588
a(I0
g10
(g14
S'\xc9\x10\x8f\xec\x0e\xc5\xbe?'
p2589
tp2590
Rp2591
tp2592
a(I0
g10
(g14
S'\xb8\xdbs\\L\xb1\xbe?'
p2593
tp2594
Rp2595
tp2596
a(I0
g10
(g14
S'f\x82\xcd3\xfc\x87\xbe?'
p2597
tp2598
Rp2599
tp2600
a(I1
g10
(g14
S'w\x9d3\xc9UR\xbe?'
p2601
tp2602
Rp2603
tp2604
a(I0
g10
(g14
S'\xdc\xdf{)\x1fP\xbe?'
p2605
tp2606
Rp2607
tp2608
a(I0
g10
(g14
S'\xa3\x01\xcf\xf8\x17G\xbe?'
p2609
tp2610
Rp2611
tp2612
a(I0
g10
(g14
S'\xd1\xab\x8e`\xd9<\xbe?'
p2613
tp2614
Rp2615
tp2616
a(I0
g10
(g14
S'%\x97\xc0-\xbf7\xbe?'
p2617
tp2618
Rp2619
tp2620
a(I0
g10
(g14
S'\xad\xa0D\xea\xaa\x1b\xbe?'
p2621
tp2622
Rp2623
tp2624
a(I0
g10
(g14
S'8\\Z\x90r\xd2\xbd?'
p2625
tp2626
Rp2627
tp2628
a(I0
g10
(g14
S'\x03\xb7Z\x18/\xc0\xbd?'
p2629
tp2630
Rp2631
tp2632
a(I0
g10
(g14
S'\x8c\xc1io\x06\x9c\xbd?'
p2633
tp2634
Rp2635
tp2636
a(I0
g10
(g14
S'\xa4\xfb\xa2\xd2\xb5\x8b\xbd?'
p2637
tp2638
Rp2639
tp2640
a(I0
g10
(g14
S'\x05V\xd9\xdf\x8d\x85\xbd?'
p2641
tp2642
Rp2643
tp2644
a(I0
g10
(g14
S'\xe0\xd5\xbeC\xd1l\xbd?'
p2645
tp2646
Rp2647
tp2648
a(I0
g10
(g14
S'\xa8\xd7\xd3\x1ds7\xbd?'
p2649
tp2650
Rp2651
tp2652
a(I0
g10
(g14
S'`)6?\xf5\x1d\xbd?'
p2653
tp2654
Rp2655
tp2656
a(I0
g10
(g14
S'v\r\xf6\xe5J\x00\xbd?'
p2657
tp2658
Rp2659
tp2660
a(I0
g10
(g14
S'\x00\\5\x0c\x18\xe8\xbc?'
p2661
tp2662
Rp2663
tp2664
a(I0
g10
(g14
S'\xfb\x1a\x16\xc8\xe7\xe2\xbc?'
p2665
tp2666
Rp2667
tp2668
a(I0
g10
(g14
S'\x81-\x81\xf7u\xd2\xbc?'
p2669
tp2670
Rp2671
tp2672
a(I0
g10
(g14
S'ZLg1\x9d\xc5\xbc?'
p2673
tp2674
Rp2675
tp2676
a(I0
g10
(g14
S'T\xfa\xbc\xd4l\xc4\xbc?'
p2677
tp2678
Rp2679
tp2680
a(I0
g10
(g14
S'\xe3\x0bb\x91SC\xbc?'
p2681
tp2682
Rp2683
tp2684
a(I0
g10
(g14
S'4\xc9URNA\xbc?'
p2685
tp2686
Rp2687
tp2688
a(I0
g10
(g14
S'\xb1\x13d\x9de\x1c\xbc?'
p2689
tp2690
Rp2691
tp2692
a(I0
g10
(g14
S'\xf8\xf7\xc5\xdd\x06\x16\xbc?'
p2693
tp2694
Rp2695
tp2696
a(I0
g10
(g14
S'N\xc3\xd9\xf1i\xf9\xbb?'
p2697
tp2698
Rp2699
tp2700
a(I0
g10
(g14
S'\xa4\xf4\xe2\xe3\xc8\xd7\xbb?'
p2701
tp2702
Rp2703
tp2704
a(I0
g10
(g14
S'_\x96A6\x1f\xc1\xbb?'
p2705
tp2706
Rp2707
tp2708
a(I0
g10
(g14
S'2\x9b\xba\xd1\x92\xad\xbb?'
p2709
tp2710
Rp2711
tp2712
a(I0
g10
(g14
S'\x1d\\\xbd\x1b\x92\x9f\xbb?'
p2713
tp2714
Rp2715
tp2716
a(I0
g10
(g14
S'\xe8nq\xba\x99\x97\xbb?'
p2717
tp2718
Rp2719
tp2720
a(I0
g10
(g14
S'\t\x06\xc7\xd6\xd2\x93\xbb?'
p2721
tp2722
Rp2723
tp2724
a(I0
g10
(g14
S'\x1a\xd8\xba\xe6\xa4\x87\xbb?'
p2725
tp2726
Rp2727
tp2728
a(I0
g10
(g14
S'\xdcQq\xd4.\x84\xbb?'
p2729
tp2730
Rp2731
tp2732
a(I0
g10
(g14
S'\xe9\xbb\xc1r\x05m\xbb?'
p2733
tp2734
Rp2735
tp2736
a(I0
g10
(g14
S'\xbby?h\xc1 \xbb?'
p2737
tp2738
Rp2739
tp2740
a(I0
g10
(g14
S'\xe1z\xea\xa2\x8b\x04\xbb?'
p2741
tp2742
Rp2743
tp2744
a(I0
g10
(g14
S'?\xa4UY\xb0\xf6\xba?'
p2745
tp2746
Rp2747
tp2748
a(I0
g10
(g14
S'\x06\xcd_\xbf\xeb\xe4\xba?'
p2749
tp2750
Rp2751
tp2752
a(I0
g10
(g14
S'\xdb\xefN@V\xb5\xba?'
p2753
tp2754
Rp2755
tp2756
a(I0
g10
(g14
S"|\x03\xc8'\x81\x8b\xba?"
p2757
tp2758
Rp2759
tp2760
a(I0
g10
(g14
S'}\xd4\x1e\x91\x82f\xba?'
p2761
tp2762
Rp2763
tp2764
a(I0
g10
(g14
S'S\xe3S\xc3 ^\xba?'
p2765
tp2766
Rp2767
tp2768
a(I0
g10
(g14
S'\xf7\xb7\x89r\xcc7\xba?'
p2769
tp2770
Rp2771
tp2772
a(I0
g10
(g14
S'`iv\xfc\xcc-\xba?'
p2773
tp2774
Rp2775
tp2776
a(I0
g10
(g14
S'\x8d\xd8{7\xa7\x12\xba?'
p2777
tp2778
Rp2779
tp2780
a(I0
g10
(g14
S'N\xd1\xcbO\xd3\n\xba?'
p2781
tp2782
Rp2783
tp2784
a(I0
g10
(g14
S'\xca\x163y\x0b\x02\xba?'
p2785
tp2786
Rp2787
tp2788
a(I0
g10
(g14
S'2\x0f\xb6!\x01\xfd\xb9?'
p2789
tp2790
Rp2791
tp2792
a(I0
g10
(g14
S'W\x07TZ\x15\xe6\xb9?'
p2793
tp2794
Rp2795
tp2796
a(I0
g10
(g14
S'!\xa5\xd9!\xa5\xd9\xb9?'
p2797
tp2798
Rp2799
tp2800
a(I0
g10
(g14
S'\xc5\xc9B\x8d\x1d\xc5\xb9?'
p2801
tp2802
Rp2803
tp2804
a(I0
g10
(g14
S'\xaeF$\x06\n\x8a\xb9?'
p2805
tp2806
Rp2807
tp2808
a(I0
g10
(g14
S'\x9a\xd3\xd6\xff\xce\x84\xb9?'
p2809
tp2810
Rp2811
tp2812
a(I0
g10
(g14
S'j5Zx\xa09\xb9?'
p2813
tp2814
Rp2815
tp2816
a(I0
g10
(g14
S"F\xdfZ\x14\xac'\xb9?"
p2817
tp2818
Rp2819
tp2820
a(I0
g10
(g14
S'\xcd\xf8\xbf2_&\xb9?'
p2821
tp2822
Rp2823
tp2824
a(I0
g10
(g14
S'\x14\x18\xb5\xeb\xbb%\xb9?'
p2825
tp2826
Rp2827
tp2828
a(I0
g10
(g14
S'\xe6\xd9\xf6h\x16\x1c\xb9?'
p2829
tp2830
Rp2831
tp2832
a(I0
g10
(g14
S'\x16>O\x82\x02\x0f\xb9?'
p2833
tp2834
Rp2835
tp2836
a(I0
g10
(g14
S'DD\x85\xc8/\xd7\xb8?'
p2837
tp2838
Rp2839
tp2840
a(I0
g10
(g14
S'C \xb0\x95\x85\xbc\xb8?'
p2841
tp2842
Rp2843
tp2844
a(I0
g10
(g14
S'\x8d\x04\x1d\xc5\x95\xa9\xb8?'
p2845
tp2846
Rp2847
tp2848
a(I0
g10
(g14
S'l\xf09\xd2V\xa0\xb8?'
p2849
tp2850
Rp2851
tp2852
a(I0
g10
(g14
S'-\xe1\xc0U=P\xb8?'
p2853
tp2854
Rp2855
tp2856
a(I0
g10
(g14
S'\x89\x02\xfb\xda\xd5\n\xb8?'
p2857
tp2858
Rp2859
tp2860
a(I0
g10
(g14
S'\xf2W\xbe$\x8b\xf1\xb7?'
p2861
tp2862
Rp2863
tp2864
a(I0
g10
(g14
S'\x0c\xc9\x15H\xd3\xec\xb7?'
p2865
tp2866
Rp2867
tp2868
a(I0
g10
(g14
S'\xdc\xed,\xd8t\xe2\xb7?'
p2869
tp2870
Rp2871
tp2872
a(I0
g10
(g14
S'\xb2?s\x99\x18\xe1\xb7?'
p2873
tp2874
Rp2875
tp2876
a(I0
g10
(g14
S'\x86)$q\xcc\xaf\xb7?'
p2877
tp2878
Rp2879
tp2880
a(I0
g10
(g14
S'xwwwww\xb7?'
p2881
tp2882
Rp2883
tp2884
a(I0
g10
(g14
S'\xfc]\xe5\xb3\x97[\xb7?'
p2885
tp2886
Rp2887
tp2888
a(I0
g10
(g14
S'f\x7f{\xa3\x89R\xb7?'
p2889
tp2890
Rp2891
tp2892
a(I0
g10
(g14
S't2\xaf\x8dYA\xb7?'
p2893
tp2894
Rp2895
tp2896
a(I0
g10
(g14
S'\xa9\xa1\xf1\xbdO9\xb7?'
p2897
tp2898
Rp2899
tp2900
a(I0
g10
(g14
S'\x0f\xdf\xd6a|\x04\xb7?'
p2901
tp2902
Rp2903
tp2904
a(I0
g10
(g14
S'\xa6h\xd1f\xaf\xcd\xb6?'
p2905
tp2906
Rp2907
tp2908
a(I0
g10
(g14
S'\x8d$\x16\x96\xfb\xb9\xb6?'
p2909
tp2910
Rp2911
tp2912
a(I0
g10
(g14
S'\x14w7f\xc4\x9d\xb6?'
p2913
tp2914
Rp2915
tp2916
a(I0
g10
(g14
S'\xed\x0f2Tv\x98\xb6?'
p2917
tp2918
Rp2919
tp2920
a(I0
g10
(g14
S'ffffff\xb6?'
p2921
tp2922
Rp2923
tp2924
a(I0
g10
(g14
S'd\x9c\x049vW\xb6?'
p2925
tp2926
Rp2927
tp2928
a(I0
g10
(g14
S'\xc91d$\xc1&\xb6?'
p2929
tp2930
Rp2931
tp2932
a(I0
g10
(g14
S'\xcdf/\xec\xeb\x1a\xb6?'
p2933
tp2934
Rp2935
tp2936
a(I0
g10
(g14
S'\xbd\x97\x1c\r\xa1\x0e\xb6?'
p2937
tp2938
Rp2939
tp2940
a(I0
g10
(g14
S'O\x9d\xf3\xbe\xda\xfd\xb5?'
p2941
tp2942
Rp2943
tp2944
a(I0
g10
(g14
S'\xfc\x0e\xf6\x07\xd7\xfb\xb5?'
p2945
tp2946
Rp2947
tp2948
a(I0
g10
(g14
S'\xc14ez8\xf9\xb5?'
p2949
tp2950
Rp2951
tp2952
a(I0
g10
(g14
S'\x94@\xeb\x95@\xeb\xb5?'
p2953
tp2954
Rp2955
tp2956
a(I0
g10
(g14
S'\x12\x82\xbe\x151\xeb\xb5?'
p2957
tp2958
Rp2959
tp2960
a(I0
g10
(g14
S'HR\x9f\tH\xc8\xb5?'
p2961
tp2962
Rp2963
tp2964
a(I0
g10
(g14
S'\xae\x0e9\xb56\xb0\xb5?'
p2965
tp2966
Rp2967
tp2968
a(I0
g10
(g14
S'w\x88^\x8c6\xa6\xb5?'
p2969
tp2970
Rp2971
tp2972
a(I0
g10
(g14
S'lZ[@O\x9f\xb5?'
p2973
tp2974
Rp2975
tp2976
a(I0
g10
(g14
S'\xcdC\xd4)\x80\x84\xb5?'
p2977
tp2978
Rp2979
tp2980
a(I0
g10
(g14
S'vQz\x88\x8f\x7f\xb5?'
p2981
tp2982
Rp2983
tp2984
a(I0
g10
(g14
S'\x0f\xa23\xd9\xa9l\xb5?'
p2985
tp2986
Rp2987
tp2988
a(I0
g10
(g14
S'\xf6f\x89\xa2\xc9[\xb5?'
p2989
tp2990
Rp2991
tp2992
a(I0
g10
(g14
S'T\xd4\x85\x00\xa5[\xb5?'
p2993
tp2994
Rp2995
tp2996
a(I0
g10
(g14
S'\xb8f\xe9\xad\x8fE\xb5?'
p2997
tp2998
Rp2999
tp3000
a(I0
g10
(g14
S'\xa3%\x83\x8ew;\xb5?'
p3001
tp3002
Rp3003
tp3004
a(I0
g10
(g14
S'\x81\xe6\x97.\xbe6\xb5?'
p3005
tp3006
Rp3007
tp3008
a(I0
g10
(g14
S'\xc0\x00\xe3\xd3\xae*\xb5?'
p3009
tp3010
Rp3011
tp3012
a(I0
g10
(g14
S'\xf3e\x1b\x93]\x0e\xb5?'
p3013
tp3014
Rp3015
tp3016
a(I0
g10
(g14
S'V\xe7``\xbe\x04\xb5?'
p3017
tp3018
Rp3019
tp3020
a(I0
g10
(g14
S'w:\x9d\xfc%\xef\xb4?'
p3021
tp3022
Rp3023
tp3024
a(I0
g10
(g14
S'\xd4W2\x8eT\xdf\xb4?'
p3025
tp3026
Rp3027
tp3028
a(I0
g10
(g14
S'\x0c\x8b\xd7\x8c\xfd\xde\xb4?'
p3029
tp3030
Rp3031
tp3032
a(I0
g10
(g14
S'o\x06\xf1]\x07\xd6\xb4?'
p3033
tp3034
Rp3035
tp3036
a(I0
g10
(g14
S'%\xa3\xb4\x86\x90\xd0\xb4?'
p3037
tp3038
Rp3039
tp3040
a(I0
g10
(g14
S',\x8e\xe1J\x13\xcd\xb4?'
p3041
tp3042
Rp3043
tp3044
a(I0
g10
(g14
S'\xad\x0en\xba\xa0\x91\xb4?'
p3045
tp3046
Rp3047
tp3048
a(I0
g10
(g14
S'\x8d\x97L\x81\xf6\x8a\xb4?'
p3049
tp3050
Rp3051
tp3052
a(I0
g10
(g14
S'\xf4\x88\xe1NN\x86\xb4?'
p3053
tp3054
Rp3055
tp3056
a(I0
g10
(g14
S'.\xf69C\xa4\x81\xb4?'
p3057
tp3058
Rp3059
tp3060
a(I0
g10
(g14
S'\xb4\x1e\xb1\xf2\xd5u\xb4?'
p3061
tp3062
Rp3063
tp3064
a(I0
g10
(g14
S'":M\xd0\xa8r\xb4?'
p3065
tp3066
Rp3067
tp3068
a(I0
g10
(g14
S'O\x1aB\x90\xb8T\xb4?'
p3069
tp3070
Rp3071
tp3072
a(I0
g10
(g14
S']\xdd\xe5\x9e\x87K\xb4?'
p3073
tp3074
Rp3075
tp3076
a(I0
g10
(g14
S"\xe4\xab'\xe4\xab'\xb4?"
p3077
tp3078
Rp3079
tp3080
a(I0
g10
(g14
S'\xa3\xa3\x16\xd0\xba%\xb4?'
p3081
tp3082
Rp3083
tp3084
a(I0
g10
(g14
S'\x0b\xbc\xb2\xc0+\x0b\xb4?'
p3085
tp3086
Rp3087
tp3088
a(I0
g10
(g14
S'ns\xd0\xa0\xa6\x03\xb4?'
p3089
tp3090
Rp3091
tp3092
a(I0
g10
(g14
S'\x17\xa4\xedWB\x00\xb4?'
p3093
tp3094
Rp3095
tp3096
a(I0
g10
(g14
S'\xb59r0\xa8\xfb\xb3?'
p3097
tp3098
Rp3099
tp3100
a(I0
g10
(g14
S't\xdc\xbc7\xb7\xf4\xb3?'
p3101
tp3102
Rp3103
tp3104
a(I0
g10
(g14
S'\x81R2\xfcf\xe0\xb3?'
p3105
tp3106
Rp3107
tp3108
a(I0
g10
(g14
S'\x16\x8a\xcc\xd7\xb5\xd7\xb3?'
p3109
tp3110
Rp3111
tp3112
a(I0
g10
(g14
S'/+\xe7\xb1\xa4\xb7\xb3?'
p3113
tp3114
Rp3115
tp3116
a(I0
g10
(g14
S'\xc4+)<\x91\xaa\xb3?'
p3117
tp3118
Rp3119
tp3120
a(I0
g10
(g14
S'$T\xfc\xeeq\x9c\xb3?'
p3121
tp3122
Rp3123
tp3124
a(I0
g10
(g14
S'\xfd\t\xabl}\x97\xb3?'
p3125
tp3126
Rp3127
tp3128
a(I0
g10
(g14
S'\x85\xa9P)\x1a\x8e\xb3?'
p3129
tp3130
Rp3131
tp3132
a(I0
g10
(g14
S'\xc1\xb6\xdf;\xcb\x8d\xb3?'
p3133
tp3134
Rp3135
tp3136
a(I0
g10
(g14
S'\x81H\x1b\xc9\xd6\x83\xb3?'
p3137
tp3138
Rp3139
tp3140
a(I0
g10
(g14
S'\xffP\x91l\xdfn\xb3?'
p3141
tp3142
Rp3143
tp3144
a(I0
g10
(g14
S'\x9fr\xdff\xc6a\xb3?'
p3145
tp3146
Rp3147
tp3148
a(I0
g10
(g14
S'4\xd5K\x95\xddX\xb3?'
p3149
tp3150
Rp3151
tp3152
a(I0
g10
(g14
S'\xa4\xf2H\x140S\xb3?'
p3153
tp3154
Rp3155
tp3156
a(I0
g10
(g14
S'\x00\x7fq\x99\x18\x0b\xb3?'
p3157
tp3158
Rp3159
tp3160
a(I0
g10
(g14
S'o\x16\x9a\xd4|\x00\xb3?'
p3161
tp3162
Rp3163
tp3164
a(I0
g10
(g14
S'\xeav\x12\x98\xbe\xf3\xb2?'
p3165
tp3166
Rp3167
tp3168
a(I0
g10
(g14
S"\xeaL\x15'r\xdd\xb2?"
p3169
tp3170
Rp3171
tp3172
a(I0
g10
(g14
S'\x94V\xd1\x85\xb3\xd0\xb2?'
p3173
tp3174
Rp3175
tp3176
a(I0
g10
(g14
S"D\x07c\xd9'\xb2\xb2?"
p3177
tp3178
Rp3179
tp3180
a(I0
g10
(g14
S'\xc98\xd4$\xc8\x96\xb2?'
p3181
tp3182
Rp3183
tp3184
a(I0
g10
(g14
S'\xf5G\xe6w\xd2\x93\xb2?'
p3185
tp3186
Rp3187
tp3188
a(I0
g10
(g14
S'\xc7\xddv\xc2d,\xb2?'
p3189
tp3190
Rp3191
tp3192
a(I0
g10
(g14
S'\xe4\xf6\xbf\xf8\x89\x16\xb2?'
p3193
tp3194
Rp3195
tp3196
a(I0
g10
(g14
S'\xad\xe2\xa2\x93\xbb\x10\xb2?'
p3197
tp3198
Rp3199
tp3200
a(I0
g10
(g14
S' \xa1\xc6\xf4\x95\n\xb2?'
p3201
tp3202
Rp3203
tp3204
a(I0
g10
(g14
S'\xac\xd2\x93\x93\xab\x01\xb2?'
p3205
tp3206
Rp3207
tp3208
a(I0
g10
(g14
S'\xa6\x00{\xed\xe1\xf5\xb1?'
p3209
tp3210
Rp3211
tp3212
a(I0
g10
(g14
S'.\x80sua\xee\xb1?'
p3213
tp3214
Rp3215
tp3216
a(I0
g10
(g14
S'\xe4\x84\x81K\xeb\xe7\xb1?'
p3217
tp3218
Rp3219
tp3220
a(I0
g10
(g14
S'\xc8\xa9\xa8+|\xd3\xb1?'
p3221
tp3222
Rp3223
tp3224
a(I0
g10
(g14
S'}\x03k\xe3i\xd1\xb1?'
p3225
tp3226
Rp3227
tp3228
a(I0
g10
(g14
S'\x85\x9f\xd9\x14b\xcf\xb1?'
p3229
tp3230
Rp3231
tp3232
a(I0
g10
(g14
S'\xbd\xc0]\x94d\xce\xb1?'
p3233
tp3234
Rp3235
tp3236
a(I0
g10
(g14
S'\xf4\xcf\x98&\x03\xcc\xb1?'
p3237
tp3238
Rp3239
tp3240
a(I0
g10
(g14
S'\xab\xa1\xaf\x1a\xfa\xaa\xb1?'
p3241
tp3242
Rp3243
tp3244
a(I0
g10
(g14
S'D\x8bl\xe7\xfb\xa9\xb1?'
p3245
tp3246
Rp3247
tp3248
a(I0
g10
(g14
S'\x06\x18\x9fvU\xa9\xb1?'
p3249
tp3250
Rp3251
tp3252
a(I0
g10
(g14
S';?\xd7\x83,\xa5\xb1?'
p3253
tp3254
Rp3255
tp3256
a(I0
g10
(g14
S'-%A\x13\x19\xa0\xb1?'
p3257
tp3258
Rp3259
tp3260
a(I0
g10
(g14
S'\xbc\x1c%2\xb8\x88\xb1?'
p3261
tp3262
Rp3263
tp3264
a(I0
g10
(g14
S'4Wd\xf5g~\xb1?'
p3265
tp3266
Rp3267
tp3268
a(I0
g10
(g14
S'\t\xd9q\x98\x9bg\xb1?'
p3269
tp3270
Rp3271
tp3272
a(I0
g10
(g14
S'c\xc9/\x96\xfcb\xb1?'
p3273
tp3274
Rp3275
tp3276
a(I0
g10
(g14
S'\xd3l$\xc1y\\\xb1?'
p3277
tp3278
Rp3279
tp3280
a(I0
g10
(g14
S'\xdf\xeb\x9br\xd9S\xb1?'
p3281
tp3282
Rp3283
tp3284
a(I0
g10
(g14
S'\xedb\xfea\x19S\xb1?'
p3285
tp3286
Rp3287
tp3288
a(I0
g10
(g14
S',\xedfi\xf7=\xb1?'
p3289
tp3290
Rp3291
tp3292
a(I0
g10
(g14
S'\x04\x02,\xe3\xb2"\xb1?'
p3293
tp3294
Rp3295
tp3296
a(I0
g10
(g14
S'\x010\x1e\x010\x1e\xb1?'
p3297
tp3298
Rp3299
tp3300
a(I0
g10
(g14
S'\x11\xd0\xecr\xbd\x08\xb1?'
p3301
tp3302
Rp3303
tp3304
a(I0
g10
(g14
S'\xa3\x05\xd5d\xfb\xfd\xb0?'
p3305
tp3306
Rp3307
tp3308
a(I0
g10
(g14
S',9.G*\xde\xb0?'
p3309
tp3310
Rp3311
tp3312
a(I0
g10
(g14
S'&&/\xbf\xbf\xc8\xb0?'
p3313
tp3314
Rp3315
tp3316
a(I0
g10
(g14
S'P\xc7\x0c\x9c<\xc3\xb0?'
p3317
tp3318
Rp3319
tp3320
a(I0
g10
(g14
S'\x96\x9d\\\xeb\xe9\xb6\xb0?'
p3321
tp3322
Rp3323
tp3324
a(I0
g10
(g14
S'\x13\x8cM\x98w\x9f\xb0?'
p3325
tp3326
Rp3327
tp3328
a(I0
g10
(g14
S'\x9f\x89J\xb5\xc9\x8e\xb0?'
p3329
tp3330
Rp3331
tp3332
a(I0
g10
(g14
S'\xa8d\x16N\x9fq\xb0?'
p3333
tp3334
Rp3335
tp3336
a(I0
g10
(g14
S'\x19x\xc3\x1e\xfd`\xb0?'
p3337
tp3338
Rp3339
tp3340
a(I0
g10
(g14
S'\xfao\xbf\xd2\xddM\xb0?'
p3341
tp3342
Rp3343
tp3344
a(I0
g10
(g14
S'3\xee\xd8\xb7\xd9*\xb0?'
p3345
tp3346
Rp3347
tp3348
a(I0
g10
(g14
S'\xda[\x99\xb2\xe4\x18\xb0?'
p3349
tp3350
Rp3351
tp3352
a(I0
g10
(g14
S'\x9cF,\xba\xcb\x17\xb0?'
p3353
tp3354
Rp3355
tp3356
a(I0
g10
(g14
S'\xfa\xa8\xe4\x9b\xa2\x16\xb0?'
p3357
tp3358
Rp3359
tp3360
a(I0
g10
(g14
S'\x98\xc3"6\xbb\x15\xb0?'
p3361
tp3362
Rp3363
tp3364
a(I0
g10
(g14
S'\xda\xf1\xd5}b\x13\xb0?'
p3365
tp3366
Rp3367
tp3368
a(I0
g10
(g14
S'\xae\x94\x8dW\x10\x12\xb0?'
p3369
tp3370
Rp3371
tp3372
a(I0
g10
(g14
S'\xadHo\xc6T\x10\xb0?'
p3373
tp3374
Rp3375
tp3376
a(I0
g10
(g14
S'\xb5\x94U0\xa9\x03\xb0?'
p3377
tp3378
Rp3379
tp3380
a(I0
g10
(g14
S'\x81\x83\x82\xb8/\x00\xb0?'
p3381
tp3382
Rp3383
tp3384
a(I0
g10
(g14
S'\xbf\xfd\xdb\xbf\xfd\xdb\xaf?'
p3385
tp3386
Rp3387
tp3388
a(I0
g10
(g14
S'\x1bD.J\x16\xbd\xaf?'
p3389
tp3390
Rp3391
tp3392
a(I0
g10
(g14
S'\x7f\x9f\xee\xf7\xe9~\xaf?'
p3393
tp3394
Rp3395
tp3396
a(I0
g10
(g14
S'6pn\xc6\x17s\xaf?'
p3397
tp3398
Rp3399
tp3400
a(I0
g10
(g14
S'qo\xe3\xd8\x9fg\xaf?'
p3401
tp3402
Rp3403
tp3404
a(I0
g10
(g14
S'\xd3\x02\tD\xcbF\xaf?'
p3405
tp3406
Rp3407
tp3408
a(I0
g10
(g14
S'\x03\xfd\x1c\xd7$\xf8\xae?'
p3409
tp3410
Rp3411
tp3412
a(I0
g10
(g14
S'\xfc\xc08\xe8\x12\xf1\xae?'
p3413
tp3414
Rp3415
tp3416
a(I0
g10
(g14
S'e<*n\x13\xce\xae?'
p3417
tp3418
Rp3419
tp3420
a(I0
g10
(g14
S'\xa6Y\x80\xf9\xf6\xad\xae?'
p3421
tp3422
Rp3423
tp3424
a(I0
g10
(g14
S'xD3o7\xad\xae?'
p3425
tp3426
Rp3427
tp3428
a(I0
g10
(g14
S'\xf3D\xfd\x1b\xa1\x8c\xae?'
p3429
tp3430
Rp3431
tp3432
a(I0
g10
(g14
S'\x08\x9fLYWk\xae?'
p3433
tp3434
Rp3435
tp3436
a(I0
g10
(g14
S'\x8c\xcf1\xbf\\@\xae?'
p3437
tp3438
Rp3439
tp3440
a(I0
g10
(g14
S'\xc36\xa8p\xb1 \xae?'
p3441
tp3442
Rp3443
tp3444
a(I0
g10
(g14
S'N\xe0\x04N\xe0\x04\xae?'
p3445
tp3446
Rp3447
tp3448
a(I0
g10
(g14
S'\xe5\xad\x01\x84\xc0\xe5\xad?'
p3449
tp3450
Rp3451
tp3452
a(I0
g10
(g14
S'\x7f\x03$?\x98\xa8\xad?'
p3453
tp3454
Rp3455
tp3456
a(I0
g10
(g14
S'S\xf3\x01\xec\x8c\x9b\xad?'
p3457
tp3458
Rp3459
tp3460
a(I0
g10
(g14
S'\xf4\xdd%\x082\x92\xad?'
p3461
tp3462
Rp3463
tp3464
a(I0
g10
(g14
S'\x1d43\xf41\x7f\xad?'
p3465
tp3466
Rp3467
tp3468
a(I0
g10
(g14
S'r9\xea)Xo\xad?'
p3469
tp3470
Rp3471
tp3472
a(I0
g10
(g14
S'7\x9f#j\xd2V\xad?'
p3473
tp3474
Rp3475
tp3476
a(I0
g10
(g14
S'=\xf6\xd5\xc0\xa2=\xad?'
p3477
tp3478
Rp3479
tp3480
a(I0
g10
(g14
S'\xdc\x9aQ\x8a\xe22\xad?'
p3481
tp3482
Rp3483
tp3484
a(I1
g10
(g14
S'\xfby"\x0c\x94.\xad?'
p3485
tp3486
Rp3487
tp3488
a(I0
g10
(g14
S'\xea\x02\x1cG\x92\xde\xac?'
p3489
tp3490
Rp3491
tp3492
a(I0
g10
(g14
S'\x01\xe2eu\xb3\xab\xac?'
p3493
tp3494
Rp3495
tp3496
a(I0
g10
(g14
S'\x94\xa2X\x94\x87g\xac?'
p3497
tp3498
Rp3499
tp3500
a(I0
g10
(g14
S'}@E^\xbbY\xac?'
p3501
tp3502
Rp3503
tp3504
a(I0
g10
(g14
S'\x12\x8d)\x94\xc9N\xac?'
p3505
tp3506
Rp3507
tp3508
a(I0
g10
(g14
S'\xce\x15\xf7q\x864\xac?'
p3509
tp3510
Rp3511
tp3512
a(I0
g10
(g14
S'\x9bRq\xf6\xe13\xac?'
p3513
tp3514
Rp3515
tp3516
a(I0
g10
(g14
S'\xe3\x8fd\xaf\\1\xac?'
p3517
tp3518
Rp3519
tp3520
a(I0
g10
(g14
S'E\xf5\xedx(!\xac?'
p3521
tp3522
Rp3523
tp3524
a(I0
g10
(g14
S'\xec\xbf\x16\x19_\x0e\xac?'
p3525
tp3526
Rp3527
tp3528
a(I0
g10
(g14
S'\x86\xb3\x7f^!\x0e\xac?'
p3529
tp3530
Rp3531
tp3532
a(I0
g10
(g14
S'\x9f\x02)\xab\xa3\xea\xab?'
p3533
tp3534
Rp3535
tp3536
a(I0
g10
(g14
S's \xe9s \xe9\xab?'
p3537
tp3538
Rp3539
tp3540
a(I0
g10
(g14
S'\t\xf3\x1df\x82\xe0\xab?'
p3541
tp3542
Rp3543
tp3544
a(I0
g10
(g14
S'\x96\xf0_\x9bi\xaa\xab?'
p3545
tp3546
Rp3547
tp3548
a(I0
g10
(g14
S'\xae\xd8\xf10c\x9f\xab?'
p3549
tp3550
Rp3551
tp3552
a(I0
g10
(g14
S'\xa9\x0c\xd6\x05\x9c\x98\xab?'
p3553
tp3554
Rp3555
tp3556
a(I0
g10
(g14
S'(H\xca\x85\xd7\x8c\xab?'
p3557
tp3558
Rp3559
tp3560
a(I0
g10
(g14
S'\xb3\x063\x06\xa4`\xab?'
p3561
tp3562
Rp3563
tp3564
a(I0
g10
(g14
S':[\\\xde\x19"\xab?'
p3565
tp3566
Rp3567
tp3568
a(I0
g10
(g14
S'\xcf\xc8\xd2C\x9a\x18\xab?'
p3569
tp3570
Rp3571
tp3572
a(I0
g10
(g14
S'\xc5g\xd8\x15 \xf7\xaa?'
p3573
tp3574
Rp3575
tp3576
a(I0
g10
(g14
S'H\x01 \xa5\x90\xe2\xaa?'
p3577
tp3578
Rp3579
tp3580
a(I0
g10
(g14
S']\x87Q\xc8\xdb\xce\xaa?'
p3581
tp3582
Rp3583
tp3584
a(I0
g10
(g14
S'\x85,\xe6\x02\x0b\xb2\xaa?'
p3585
tp3586
Rp3587
tp3588
a(I0
g10
(g14
S'M-6\xd2\xfd\x96\xaa?'
p3589
tp3590
Rp3591
tp3592
a(I0
g10
(g14
S'\x1f\xe3\xab\xedy\x96\xaa?'
p3593
tp3594
Rp3595
tp3596
a(I0
g10
(g14
S'iY5\x15%\x81\xaa?'
p3597
tp3598
Rp3599
tp3600
a(I0
g10
(g14
S'\xe5\xd0"\xdb\xf9~\xaa?'
p3601
tp3602
Rp3603
tp3604
a(I0
g10
(g14
S'o`\xccj\x02s\xaa?'
p3605
tp3606
Rp3607
tp3608
a(I0
g10
(g14
S'\xeei\xf15Kl\xaa?'
p3609
tp3610
Rp3611
tp3612
a(I0
g10
(g14
S'\xf2\xe9\xfd\xf3ok\xaa?'
p3613
tp3614
Rp3615
tp3616
a(I0
g10
(g14
S'\x0ee\x8d\xfb\x80c\xaa?'
p3617
tp3618
Rp3619
tp3620
a(I0
g10
(g14
S'\xd4\x8f\x10\xe9=X\xaa?'
p3621
tp3622
Rp3623
tp3624
a(I0
g10
(g14
S"Z\x8d\xdb\xff\xe2'\xaa?"
p3625
tp3626
Rp3627
tp3628
a(I0
g10
(g14
S'v\xc1\xff\xb5_\x12\xaa?'
p3629
tp3630
Rp3631
tp3632
a(I0
g10
(g14
S'\xedB\xaeq\x13\x0f\xaa?'
p3633
tp3634
Rp3635
tp3636
a(I0
g10
(g14
S'%M\xa98\xfb\xf0\xa9?'
p3637
tp3638
Rp3639
tp3640
a(I0
g10
(g14
S'\x11\xbd\xa3w}\xe5\xa9?'
p3641
tp3642
Rp3643
tp3644
a(I0
g10
(g14
S'\x8e\x04|\xf3j\xe2\xa9?'
p3645
tp3646
Rp3647
tp3648
a(I0
g10
(g14
S'\x12\xdb\xcf\x82\x18\xda\xa9?'
p3649
tp3650
Rp3651
tp3652
a(I0
g10
(g14
S'\xfb\x90\x8a\xbd\x86\xb3\xa9?'
p3653
tp3654
Rp3655
tp3656
a(I0
g10
(g14
S'n\xb0L\xe2\x81\x92\xa9?'
p3657
tp3658
Rp3659
tp3660
a(I0
g10
(g14
S'\xdd5\x10\x8c\xcby\xa9?'
p3661
tp3662
Rp3663
tp3664
a(I0
g10
(g14
S'&\xfdH<\x05l\xa9?'
p3665
tp3666
Rp3667
tp3668
a(I0
g10
(g14
S'J\xf3K\x1c9c\xa9?'
p3669
tp3670
Rp3671
tp3672
a(I0
g10
(g14
S'oS\n\xb5\x85X\xa9?'
p3673
tp3674
Rp3675
tp3676
a(I0
g10
(g14
S']\x83\xf0\xc2\xe9V\xa9?'
p3677
tp3678
Rp3679
tp3680
a(I1
g10
(g14
S'\xd6\x1f7\xe8\x1eR\xa9?'
p3681
tp3682
Rp3683
tp3684
a(I0
g10
(g14
S'M\x892\xfedO\xa9?'
p3685
tp3686
Rp3687
tp3688
a(I0
g10
(g14
S'\xa4#\xf3\xb7\xd1:\xa9?'
p3689
tp3690
Rp3691
tp3692
a(I0
g10
(g14
S'\x13\x05h\xa0\x181\xa9?'
p3693
tp3694
Rp3695
tp3696
a(I0
g10
(g14
S'\xbb\xaaZ\xd7e(\xa9?'
p3697
tp3698
Rp3699
tp3700
a(I0
g10
(g14
S'\x9c\xf9~-\xd4\x1a\xa9?'
p3701
tp3702
Rp3703
tp3704
a(I0
g10
(g14
S'\x80= L\n\xed\xa8?'
p3705
tp3706
Rp3707
tp3708
a(I0
g10
(g14
S'8\x8e\xe38\x8e\xe3\xa8?'
p3709
tp3710
Rp3711
tp3712
a(I0
g10
(g14
S'\xa6\xf3\xee\xe4\xe2\xd4\xa8?'
p3713
tp3714
Rp3715
tp3716
a(I0
g10
(g14
S'\x08\xf1\xb4&v\xa0\xa8?'
p3717
tp3718
Rp3719
tp3720
a(I0
g10
(g14
S'!\xc7\x90\x91\x04\x9b\xa8?'
p3721
tp3722
Rp3723
tp3724
a(I0
g10
(g14
S'\xbc\xd10"8\x97\xa8?'
p3725
tp3726
Rp3727
tp3728
a(I0
g10
(g14
S'V\xefkk\xf7\x8e\xa8?'
p3729
tp3730
Rp3731
tp3732
a(I0
g10
(g14
S'q\xd0\xaa\x1d\x18\x8c\xa8?'
p3733
tp3734
Rp3735
tp3736
a(I0
g10
(g14
S'!rEU\x8a\x87\xa8?'
p3737
tp3738
Rp3739
tp3740
a(I0
g10
(g14
S'*\xed\x05\x92Sl\xa8?'
p3741
tp3742
Rp3743
tp3744
a(I0
g10
(g14
S'\xbd>\xb1\xb8\xe0W\xa8?'
p3745
tp3746
Rp3747
tp3748
a(I0
g10
(g14
S'7\x8dXt\x97/\xa8?'
p3749
tp3750
Rp3751
tp3752
a(I0
g10
(g14
S'\xe8\xb7kBG.\xa8?'
p3753
tp3754
Rp3755
tp3756
a(I0
g10
(g14
S'f\x99]\xb3\xf3"\xa8?'
p3757
tp3758
Rp3759
tp3760
a(I0
g10
(g14
S'\xff\x04@\xcb\xb6\x1b\xa8?'
p3761
tp3762
Rp3763
tp3764
a(I0
g10
(g14
S'm\x10\x8a\xc2\\\xe4\xa7?'
p3765
tp3766
Rp3767
tp3768
a(I0
g10
(g14
S'\xee\x99\xa4\xd6o\xc7\xa7?'
p3769
tp3770
Rp3771
tp3772
a(I0
g10
(g14
S'%\xfd\xa4c\xec\x8a\xa7?'
p3773
tp3774
Rp3775
tp3776
a(I0
g10
(g14
S'\x05\xe0\x05\xbc\x19|\xa7?'
p3777
tp3778
Rp3779
tp3780
a(I0
g10
(g14
S'xwwwww\xa7?'
p3781
tp3782
Rp3783
tp3784
a(I0
g10
(g14
S' \x90\x9b\xbd\xbdp\xa7?'
p3785
tp3786
Rp3787
tp3788
a(I0
g10
(g14
S'\x11wS\x80\xb4]\xa7?'
p3789
tp3790
Rp3791
tp3792
a(I0
g10
(g14
S'\x7f\x9cE\x1d\xaf)\xa7?'
p3793
tp3794
Rp3795
tp3796
a(I0
g10
(g14
S'\\q\x9c\x93\x1d\x1a\xa7?'
p3797
tp3798
Rp3799
tp3800
a(I0
g10
(g14
S';\xaa\x1d\nA\x08\xa7?'
p3801
tp3802
Rp3803
tp3804
a(I0
g10
(g14
S'\xe3V(n\x85\xe2\xa6?'
p3805
tp3806
Rp3807
tp3808
a(I0
g10
(g14
S'\xa5\x91\xaf*\xd7\xdc\xa6?'
p3809
tp3810
Rp3811
tp3812
a(I0
g10
(g14
S'\x96\xbc\xb6\x87Q\xd7\xa6?'
p3813
tp3814
Rp3815
tp3816
a(I0
g10
(g14
S'\x89\xdc\x80,M\xbe\xa6?'
p3817
tp3818
Rp3819
tp3820
a(I0
g10
(g14
S';\xb3H\xa0\x19\xaf\xa6?'
p3821
tp3822
Rp3823
tp3824
a(I0
g10
(g14
S'\xe4\xa8\x00}B\x9a\xa6?'
p3825
tp3826
Rp3827
tp3828
a(I0
g10
(g14
S'\xfd_/(\x16\x9a\xa6?'
p3829
tp3830
Rp3831
tp3832
a(I0
g10
(g14
S'-6\xc9\xf9\x02\x96\xa6?'
p3833
tp3834
Rp3835
tp3836
a(I0
g10
(g14
S'|\xd2%\xfe\x0eK\xa6?'
p3837
tp3838
Rp3839
tp3840
a(I0
g10
(g14
S'\xcc\x86]\nvC\xa6?'
p3841
tp3842
Rp3843
tp3844
a(I0
g10
(g14
S'\x13\xfd\x9d\xac\x967\xa6?'
p3845
tp3846
Rp3847
tp3848
a(I0
g10
(g14
S'\xd2H\xc07\xaf&\xa6?'
p3849
tp3850
Rp3851
tp3852
a(I0
g10
(g14
S'\xbb\x96\x05o\xb1\x0c\xa6?'
p3853
tp3854
Rp3855
tp3856
a(I0
g10
(g14
S'\x1a\xee\xed\xd5\x10\xf1\xa5?'
p3857
tp3858
Rp3859
tp3860
a(I0
g10
(g14
S'v&\x0b#n\xec\xa5?'
p3861
tp3862
Rp3863
tp3864
a(I0
g10
(g14
S'\x03_a\xba}\xe6\xa5?'
p3865
tp3866
Rp3867
tp3868
a(I0
g10
(g14
S'\x1aDW\xf0\xe7\xc7\xa5?'
p3869
tp3870
Rp3871
tp3872
a(I0
g10
(g14
S'{\xb85\xa3\x14\xc5\xa5?'
p3873
tp3874
Rp3875
tp3876
a(I0
g10
(g14
S'QS\x8asQ\xc0\xa5?'
p3877
tp3878
Rp3879
tp3880
a(I0
g10
(g14
S'\xe4x\xb4\xf4\xad\xb1\xa5?'
p3881
tp3882
Rp3883
tp3884
a(I0
g10
(g14
S'\n\x1c\x84\xaf\xcb\xab\xa5?'
p3885
tp3886
Rp3887
tp3888
a(I0
g10
(g14
S'\xc0\xd4\nz\xd8\x9e\xa5?'
p3889
tp3890
Rp3891
tp3892
a(I0
g10
(g14
S'\xb6\x1b\xe8q\xe9\x99\xa5?'
p3893
tp3894
Rp3895
tp3896
a(I0
g10
(g14
S'\x1c\x17S\xac\xd9H\xa5?'
p3897
tp3898
Rp3899
tp3900
a(I0
g10
(g14
S'\xfb\x02x\xc8\xcfD\xa5?'
p3901
tp3902
Rp3903
tp3904
a(I0
g10
(g14
S'\xf6\xf0\x0ff.\x1a\xa5?'
p3905
tp3906
Rp3907
tp3908
a(I0
g10
(g14
S'\xd7D\xc8\x98:\xf1\xa4?'
p3909
tp3910
Rp3911
tp3912
a(I0
g10
(g14
S'\xafV\xda\xec\xeb\xe4\xa4?'
p3913
tp3914
Rp3915
tp3916
a(I0
g10
(g14
S'\xeeA\xf5\xfb\xac\xd4\xa4?'
p3917
tp3918
Rp3919
tp3920
a(I0
g10
(g14
S'n\x7f\x90\xa1\xb2\xc3\xa4?'
p3921
tp3922
Rp3923
tp3924
a(I0
g10
(g14
S'\t\x87q\x90\xb1\xad\xa4?'
p3925
tp3926
Rp3927
tp3928
a(I0
g10
(g14
S'=\xee\x9e\xbc{\x97\xa4?'
p3929
tp3930
Rp3931
tp3932
a(I0
g10
(g14
S'\x7f\xe3m\xc0f\x8f\xa4?'
p3933
tp3934
Rp3935
tp3936
a(I0
g10
(g14
S'{\x14\xaeG\xe1z\xa4?'
p3937
tp3938
Rp3939
tp3940
a(I0
g10
(g14
S'\x04l\x83\x93.y\xa4?'
p3941
tp3942
Rp3943
tp3944
a(I0
g10
(g14
S'Ny.\x81\xaca\xa4?'
p3945
tp3946
Rp3947
tp3948
a(I0
g10
(g14
S's\xd5\x9e\xceda\xa4?'
p3949
tp3950
Rp3951
tp3952
a(I0
g10
(g14
S'81\xc3\xf04W\xa4?'
p3953
tp3954
Rp3955
tp3956
a(I0
g10
(g14
S'<\x055\xcb\xc7*\xa4?'
p3957
tp3958
Rp3959
tp3960
a(I0
g10
(g14
S'\xf1`\x9e\xa8\x7f#\xa4?'
p3961
tp3962
Rp3963
tp3964
a(I0
g10
(g14
S"[\x0eL'\xdb\x18\xa4?"
p3965
tp3966
Rp3967
tp3968
a(I0
g10
(g14
S'\x1c7(\xd8\xe9\xe8\xa3?'
p3969
tp3970
Rp3971
tp3972
a(I0
g10
(g14
S'6\xf1\xach$\xe0\xa3?'
p3973
tp3974
Rp3975
tp3976
a(I0
g10
(g14
S'\xb1\xe29Y\xcc\xc1\xa3?'
p3977
tp3978
Rp3979
tp3980
a(I0
g10
(g14
S'`\xd5"\xfan\xbc\xa3?'
p3981
tp3982
Rp3983
tp3984
a(I0
g10
(g14
S'\xe7*\xba\xc5\xdb\xb0\xa3?'
p3985
tp3986
Rp3987
tp3988
a(I0
g10
(g14
S'\xa5W7\r\xa3\xac\xa3?'
p3989
tp3990
Rp3991
tp3992
a(I0
g10
(g14
S'b\x06\xea\xbd\x95\xac\xa3?'
p3993
tp3994
Rp3995
tp3996
a(I0
g10
(g14
S'\xa0\xbc\x917\xda\x95\xa3?'
p3997
tp3998
Rp3999
tp4000
a(I0
g10
(g14
S'\x06*;\x1a\xd8\x82\xa3?'
p4001
tp4002
Rp4003
tp4004
a(I0
g10
(g14
S'\x138\x81\x138\x81\xa3?'
p4005
tp4006
Rp4007
tp4008
a(I0
g10
(g14
S'\xadh$\xe0\x9bW\xa3?'
p4009
tp4010
Rp4011
tp4012
a(I0
g10
(g14
S'\xadh$\xe0\x9bW\xa3?'
p4013
tp4014
Rp4015
tp4016
a(I0
g10
(g14
S'\x9a\xf7b9\xefU\xa3?'
p4017
tp4018
Rp4019
tp4020
a(I0
g10
(g14
S'\xf8\x1e\x84\xe4UK\xa3?'
p4021
tp4022
Rp4023
tp4024
a(I0
g10
(g14
S'PR\xb4\x07q9\xa3?'
p4025
tp4026
Rp4027
tp4028
a(I0
g10
(g14
S'\x9f\x0c\xf1\xa2\xa0,\xa3?'
p4029
tp4030
Rp4031
tp4032
a(I0
g10
(g14
S'\xe8{\xf9n\xc1&\xa3?'
p4033
tp4034
Rp4035
tp4036
a(I0
g10
(g14
S'\x8aA`\xe5\xd0"\xa3?'
p4037
tp4038
Rp4039
tp4040
a(I0
g10
(g14
S'\xd6R\xf8\x87.\x15\xa3?'
p4041
tp4042
Rp4043
tp4044
a(I0
g10
(g14
S'j\xe9[c\x8b\x02\xa3?'
p4045
tp4046
Rp4047
tp4048
a(I0
g10
(g14
S'\xaf\xb5\x86v$\xfa\xa2?'
p4049
tp4050
Rp4051
tp4052
a(I0
g10
(g14
S'l\x80\xc6\xae\xe8\xf6\xa2?'
p4053
tp4054
Rp4055
tp4056
a(I0
g10
(g14
S'Z\xdc\r&\xa9\xda\xa2?'
p4057
tp4058
Rp4059
tp4060
a(I0
g10
(g14
S'.8y#a\xd5\xa2?'
p4061
tp4062
Rp4063
tp4064
a(I0
g10
(g14
S'\x93\x93\xd5\xa1\xe3\xc3\xa2?'
p4065
tp4066
Rp4067
tp4068
a(I0
g10
(g14
S'\x06\x91Cl\xf7\xa9\xa2?'
p4069
tp4070
Rp4071
tp4072
a(I0
g10
(g14
S'\xfc\x07\xcdz\xcb\xa7\xa2?'
p4073
tp4074
Rp4075
tp4076
a(I0
g10
(g14
S'\x9a\xa2\x94)J\x99\xa2?'
p4077
tp4078
Rp4079
tp4080
a(I0
g10
(g14
S'}\xb7(\x820s\xa2?'
p4081
tp4082
Rp4083
tp4084
a(I0
g10
(g14
S'_\xee\xf2\xb4\x1f\\\xa2?'
p4085
tp4086
Rp4087
tp4088
a(I0
g10
(g14
S'\x88w\xa1s\xc9Y\xa2?'
p4089
tp4090
Rp4091
tp4092
a(I0
g10
(g14
S"\xfeM\xae'\x8fL\xa2?"
p4093
tp4094
Rp4095
tp4096
a(I0
g10
(g14
S'\xaaB+\x1b\x805\xa2?'
p4097
tp4098
Rp4099
tp4100
a(I0
g10
(g14
S'\x1d\xb2\xd2!+\x1d\xa2?'
p4101
tp4102
Rp4103
tp4104
a(I0
g10
(g14
S'_\xb9b\xf8R\xfc\xa1?'
p4105
tp4106
Rp4107
tp4108
a(I0
g10
(g14
S'/d\x14\x8c\xd8\xe5\xa1?'
p4109
tp4110
Rp4111
tp4112
a(I0
g10
(g14
S'\x12\x1e\xe1\x11\x1e\xe1\xa1?'
p4113
tp4114
Rp4115
tp4116
a(I0
g10
(g14
S'\xdd\xa9vC\x10\xdd\xa1?'
p4117
tp4118
Rp4119
tp4120
a(I0
g10
(g14
S'Q\x8f\x16\x9d\xe9\xdb\xa1?'
p4121
tp4122
Rp4123
tp4124
a(I0
g10
(g14
S'\xafpo\x93\x7f\xbf\xa1?'
p4125
tp4126
Rp4127
tp4128
a(I0
g10
(g14
S'\xf1\xb8\x84\xb5\x93\xbc\xa1?'
p4129
tp4130
Rp4131
tp4132
a(I0
g10
(g14
S'\x0e\x10\xa7\xc3\xcd\x87\xa1?'
p4133
tp4134
Rp4135
tp4136
a(I0
g10
(g14
S'\x8bF\x02\xbey5\xa1?'
p4137
tp4138
Rp4139
tp4140
a(I0
g10
(g14
S'\xd3\xe8\xe1\x85\xa9\r\xa1?'
p4141
tp4142
Rp4143
tp4144
a(I0
g10
(g14
S'\x16\xd4\x8bM\x80\t\xa1?'
p4145
tp4146
Rp4147
tp4148
a(I0
g10
(g14
S'\x13\xfc\xb6\x98\xe7\x08\xa1?'
p4149
tp4150
Rp4151
tp4152
a(I0
g10
(g14
S'\xfb\xd0\x8f\xf1\xde\xfa\xa0?'
p4153
tp4154
Rp4155
tp4156
a(I0
g10
(g14
S'\x84\xfd\x92\xeac\xf9\xa0?'
p4157
tp4158
Rp4159
tp4160
a(I0
g10
(g14
S'\xa1\x94\x0c\xbf\x19\xf8\xa0?'
p4161
tp4162
Rp4163
tp4164
a(I0
g10
(g14
S'L7\x89A`\xe5\xa0?'
p4165
tp4166
Rp4167
tp4168
a(I0
g10
(g14
S'/\xe6(\x9a\xc5\xd9\xa0?'
p4169
tp4170
Rp4171
tp4172
a(I0
g10
(g14
S'Rh\x9c#\xae\xb3\xa0?'
p4173
tp4174
Rp4175
tp4176
a(I0
g10
(g14
S'\xd1\xdc\xa2\xdb>z\xa0?'
p4177
tp4178
Rp4179
tp4180
a(I0
g10
(g14
S'Q\xe9vP\xe9v\xa0?'
p4181
tp4182
Rp4183
tp4184
a(I0
g10
(g14
S'\xa6\x9b\xc4 \xb0r\xa0?'
p4185
tp4186
Rp4187
tp4188
a(I0
g10
(g14
S'\xba\xe5\xf9\xb0\xf3d\xa0?'
p4189
tp4190
Rp4191
tp4192
a(I0
g10
(g14
S'\xdfX\x91+\xb3V\xa0?'
p4193
tp4194
Rp4195
tp4196
a(I0
g10
(g14
S'\x1a8\x1bMkN\xa0?'
p4197
tp4198
Rp4199
tp4200
a(I0
g10
(g14
S'\x1a\xbd-kuL\xa0?'
p4201
tp4202
Rp4203
tp4204
a(I0
g10
(g14
S'\xef\xfa\x92Y\xdaC\xa0?'
p4205
tp4206
Rp4207
tp4208
a(I0
g10
(g14
S'}6U\xda\xc5\x17\xa0?'
p4209
tp4210
Rp4211
tp4212
a(I0
g10
(g14
S'$\x9aF\x87\x9f\x08\xa0?'
p4213
tp4214
Rp4215
tp4216
a(I0
g10
(g14
S'\x00\x00\x00\x00\x00\x00\xa0?'
p4217
tp4218
Rp4219
tp4220
a(I0
g10
(g14
S'\x84h\x80\xcbI\xfb\x9f?'
p4221
tp4222
Rp4223
tp4224
a(I0
g10
(g14
S'z\xf8\xa9\x8e\xa6\xf1\x9f?'
p4225
tp4226
Rp4227
tp4228
a(I0
g10
(g14
S' \x92,\x89\xc2\xb0\x9f?'
p4229
tp4230
Rp4231
tp4232
a(I0
g10
(g14
S'\xbf\x12\xb0\xdd\xb2\x8c\x9f?'
p4233
tp4234
Rp4235
tp4236
a(I0
g10
(g14
S'T\xc3\x12\x13\n\x0f\x9f?'
p4237
tp4238
Rp4239
tp4240
a(I0
g10
(g14
S'\xd6\xbcN\x1c\x97\x00\x9f?'
p4241
tp4242
Rp4243
tp4244
a(I0
g10
(g14
S'\x88\xeb\x8c\xac\x98\xef\x9e?'
p4245
tp4246
Rp4247
tp4248
a(I0
g10
(g14
S'V\x042@V\xea\x9e?'
p4249
tp4250
Rp4251
tp4252
a(I0
g10
(g14
S',`\x8d\x1f\xa4\xda\x9e?'
p4253
tp4254
Rp4255
tp4256
a(I0
g10
(g14
S'Wiz\x8b\x9c\xad\x9e?'
p4257
tp4258
Rp4259
tp4260
a(I0
g10
(g14
S'\xe1\xd4Cf\xc0\x95\x9e?'
p4261
tp4262
Rp4263
tp4264
a(I0
g10
(g14
S'\x84\xb5\xbeQ\x82\x8b\x9e?'
p4265
tp4266
Rp4267
tp4268
a(I0
g10
(g14
S'/kuL\xf0`\x9e?'
p4269
tp4270
Rp4271
tp4272
a(I0
g10
(g14
S'-kuL\xf0`\x9e?'
p4273
tp4274
Rp4275
tp4276
a(I0
g10
(g14
S'\x1b\xd2\xe9\xf0\x90K\x9e?'
p4277
tp4278
Rp4279
tp4280
a(I0
g10
(g14
S'A\x9e\x12\xe4)A\x9e?'
p4281
tp4282
Rp4283
tp4284
a(I0
g10
(g14
S'\n\xd3\xcd\xe0v>\x9e?'
p4285
tp4286
Rp4287
tp4288
a(I0
g10
(g14
S'\xa4\xb7e\xad\x8e\t\x9e?'
p4289
tp4290
Rp4291
tp4292
a(I0
g10
(g14
S'\xae8\x945\xee\x03\x9e?'
p4293
tp4294
Rp4295
tp4296
a(I0
g10
(g14
S'\xb4r\x1ac\xba\xfb\x9d?'
p4297
tp4298
Rp4299
tp4300
a(I0
g10
(g14
S'\x92\xbfi\xd9\xa0\xe4\x9d?'
p4301
tp4302
Rp4303
tp4304
a(I0
g10
(g14
S'\x81\xbb(\xc9\x9c\xa3\x9d?'
p4305
tp4306
Rp4307
tp4308
a(I0
g10
(g14
S'\xbaq\x97\xe5\xe2\x81\x9d?'
p4309
tp4310
Rp4311
tp4312
a(I0
g10
(g14
S'\x9b[\xd5h\xf7I\x9d?'
p4313
tp4314
Rp4315
tp4316
a(I0
g10
(g14
S'\xdag<(q.\x9d?'
p4317
tp4318
Rp4319
tp4320
a(I0
g10
(g14
S'S\xf3\xb4\xc5\xdf\xeb\x9c?'
p4321
tp4322
Rp4323
tp4324
a(I0
g10
(g14
S'\x16\xd0\xd3g\xa3\xe3\x9c?'
p4325
tp4326
Rp4327
tp4328
a(I0
g10
(g14
S'{\x17W"\x1c\xd0\x9c?'
p4329
tp4330
Rp4331
tp4332
a(I0
g10
(g14
S'\xa9\xbc\xa0\xca\x0b\xaa\x9c?'
p4333
tp4334
Rp4335
tp4336
a(I0
g10
(g14
S'\xd6\x8e\x93E\xcc\x9d\x9c?'
p4337
tp4338
Rp4339
tp4340
a(I0
g10
(g14
S'6GXiz\x8b\x9c?'
p4341
tp4342
Rp4343
tp4344
a(I0
g10
(g14
S'_\xb2\x1b\xe4\x9dm\x9c?'
p4345
tp4346
Rp4347
tp4348
a(I0
g10
(g14
S'\xf8\xee\x03\xed\x17`\x9c?'
p4349
tp4350
Rp4351
tp4352
a(I0
g10
(g14
S'z\xbdx\xc2\x04"\x9c?'
p4353
tp4354
Rp4355
tp4356
a(I0
g10
(g14
S'\xe9\x1bO\x82\xb5\xe8\x9b?'
p4357
tp4358
Rp4359
tp4360
a(I0
g10
(g14
S'\x83\x89\xfeNV\xcb\x9b?'
p4361
tp4362
Rp4363
tp4364
a(I0
g10
(g14
S'X2\xbe\x97\x06\xb3\x9b?'
p4365
tp4366
Rp4367
tp4368
a(I0
g10
(g14
S'\x03J\xca\xce\x16\x97\x9b?'
p4369
tp4370
Rp4371
tp4372
a(I0
g10
(g14
S'\xcfri\xbc\x8e?\x9b?'
p4373
tp4374
Rp4375
tp4376
a(I0
g10
(g14
S'\xdc\xb3=\xdb\xb3=\x9b?'
p4377
tp4378
Rp4379
tp4380
a(I0
g10
(g14
S'\x98\xed5\xd7\xc1*\x9b?'
p4381
tp4382
Rp4383
tp4384
a(I0
g10
(g14
S'\x7fa\xc1\xe4\xe2\x18\x9b?'
p4385
tp4386
Rp4387
tp4388
a(I0
g10
(g14
S'\x03\xea\xb0(\x97\x13\x9b?'
p4389
tp4390
Rp4391
tp4392
a(I0
g10
(g14
S'Q\xbf\x98\xd2\xfb\xbd\x9a?'
p4393
tp4394
Rp4395
tp4396
a(I0
g10
(g14
S'\xaa\xaa\xaa\xaa\xaa\xaa\x9a?'
p4397
tp4398
Rp4399
tp4400
a(I0
g10
(g14
S'\xda\x06\xfc\x9d\xc6B\x9a?'
p4401
tp4402
Rp4403
tp4404
a(I0
g10
(g14
S'\x18\xb8\x8b\x92\xcc9\x9a?'
p4405
tp4406
Rp4407
tp4408
a(I0
g10
(g14
S'\x9d\xbdE\x8b\xbe*\x9a?'
p4409
tp4410
Rp4411
tp4412
a(I0
g10
(g14
S'\xfb\x17\xaf\x90\x02\x1c\x9a?'
p4413
tp4414
Rp4415
tp4416
a(I0
g10
(g14
S'M\xe1YEp\xe4\x99?'
p4417
tp4418
Rp4419
tp4420
a(I0
g10
(g14
S'D\x01\xbbD\x82\xda\x99?'
p4421
tp4422
Rp4423
tp4424
a(I0
g10
(g14
S'\xefmc&5\xd2\x99?'
p4425
tp4426
Rp4427
tp4428
a(I0
g10
(g14
S'{\x92\xa2=\x88\xcb\x99?'
p4429
tp4430
Rp4431
tp4432
a(I0
g10
(g14
S'&\x02(\xde;\x9e\x99?'
p4433
tp4434
Rp4435
tp4436
a(I0
g10
(g14
S'\x9a\x99\x99\x99\x99\x99\x99?'
p4437
tp4438
Rp4439
tp4440
a(I0
g10
(g14
S'OT\x18\x95\x86f\x99?'
p4441
tp4442
Rp4443
tp4444
a(I0
g10
(g14
S"\xb2\xaf\xe5\xc7'K\x99?"
p4445
tp4446
Rp4447
tp4448
a(I0
g10
(g14
S'\xc0Nv\xc1\x02-\x99?'
p4449
tp4450
Rp4451
tp4452
a(I0
g10
(g14
S'\xf7V\x8c\x80\xd6\x19\x99?'
p4453
tp4454
Rp4455
tp4456
a(I0
g10
(g14
S's\x87\xd4\xa5\xba\x07\x99?'
p4457
tp4458
Rp4459
tp4460
a(I0
g10
(g14
S'CWS#\xd7\xf1\x98?'
p4461
tp4462
Rp4463
tp4464
a(I0
g10
(g14
S'j\xfbn\x0el\xac\x98?'
p4465
tp4466
Rp4467
tp4468
a(I0
g10
(g14
S'\x9c\xce\xe8\xa7o\xaa\x98?'
p4469
tp4470
Rp4471
tp4472
a(I0
g10
(g14
S'.>\x9a\xddO\x99\x98?'
p4473
tp4474
Rp4475
tp4476
a(I0
g10
(g14
S'e"\xf3\xfe\xbb\x8c\x98?'
p4477
tp4478
Rp4479
tp4480
a(I0
g10
(g14
S'\x8f\t0\xd4;~\x98?'
p4481
tp4482
Rp4483
tp4484
a(I0
g10
(g14
S'\x1a\x16^6\xb6:\x98?'
p4485
tp4486
Rp4487
tp4488
a(I0
g10
(g14
S'\xfc\xaf\xbbC\x916\x98?'
p4489
tp4490
Rp4491
tp4492
a(I0
g10
(g14
S'\xbd\xb1\x10O>$\x98?'
p4493
tp4494
Rp4495
tp4496
a(I0
g10
(g14
S'&\x1bD\xa0/\xf2\x97?'
p4497
tp4498
Rp4499
tp4500
a(I0
g10
(g14
S'\xe4\x17K~\xb1\xe4\x97?'
p4501
tp4502
Rp4503
tp4504
a(I0
g10
(g14
S'\xf6\x08\xc9\x06\x08\xe4\x97?'
p4505
tp4506
Rp4507
tp4508
a(I0
g10
(g14
S'dB \xfe\xdb\xb9\x97?'
p4509
tp4510
Rp4511
tp4512
a(I0
g10
(g14
S'\x03tb\x16"\xaa\x97?'
p4513
tp4514
Rp4515
tp4516
a(I0
g10
(g14
S'\xb8\x1ddo\x05\\\x97?'
p4517
tp4518
Rp4519
tp4520
a(I0
g10
(g14
S'e\xc8\x91\xc1WT\x97?'
p4521
tp4522
Rp4523
tp4524
a(I0
g10
(g14
S'x.&;$O\x97?'
p4525
tp4526
Rp4527
tp4528
a(I0
g10
(g14
S'\xc4\xcf\x8c]i&\x97?'
p4529
tp4530
Rp4531
tp4532
a(I0
g10
(g14
S';B\xb8\xb7\n\x1d\x97?'
p4533
tp4534
Rp4535
tp4536
a(I0
g10
(g14
S'\xe4\xce~}h\x18\x97?'
p4537
tp4538
Rp4539
tp4540
a(I0
g10
(g14
S'vz,\xb3\x84\x03\x97?'
p4541
tp4542
Rp4543
tp4544
a(I0
g10
(g14
S'\xcc\xab\xfb{\xbd\xfa\x96?'
p4545
tp4546
Rp4547
tp4548
a(I0
g10
(g14
S'\xed6\xc7ns\xec\x96?'
p4549
tp4550
Rp4551
tp4552
a(I0
g10
(g14
S'\x04`\xd6$\xaf\xdf\x96?'
p4553
tp4554
Rp4555
tp4556
a(I0
g10
(g14
S'\x86\xc1\x13\xc3\xe6\xdb\x96?'
p4557
tp4558
Rp4559
tp4560
a(I0
g10
(g14
S';\x1d}\xa0\x9e\xd4\x96?'
p4561
tp4562
Rp4563
tp4564
a(I0
g10
(g14
S'\xc8\xdf\xd2\xd5J\xb2\x96?'
p4565
tp4566
Rp4567
tp4568
a(I0
g10
(g14
S'\xb2\x07f\xb6\x9b\xa1\x96?'
p4569
tp4570
Rp4571
tp4572
a(I0
g10
(g14
S'\xbbI\x0c\x02+\x87\x96?'
p4573
tp4574
Rp4575
tp4576
a(I0
g10
(g14
S'\x11\x9bJC\xce}\x96?'
p4577
tp4578
Rp4579
tp4580
a(I0
g10
(g14
S'\xbcZdM\xe7w\x96?'
p4581
tp4582
Rp4583
tp4584
a(I0
g10
(g14
S'\x16eQ\x16eQ\x96?'
p4585
tp4586
Rp4587
tp4588
a(I0
g10
(g14
S'&20D\xb7\x1b\x96?'
p4589
tp4590
Rp4591
tp4592
a(I0
g10
(g14
S'\xc3\xf5(\\\x8f\xc2\x95?'
p4593
tp4594
Rp4595
tp4596
a(I0
g10
(g14
S'\x1b/\xdd$\x06\x81\x95?'
p4597
tp4598
Rp4599
tp4600
a(I0
g10
(g14
S'\xf6\x9fJ\xf5\x9fJ\x95?'
p4601
tp4602
Rp4603
tp4604
a(I0
g10
(g14
S'i\x04\xc5\xcej+\x95?'
p4605
tp4606
Rp4607
tp4608
a(I0
g10
(g14
S'wD\xa4\xf5\xd6&\x95?'
p4609
tp4610
Rp4611
tp4612
a(I0
g10
(g14
S'\xfb\x1eV\xc8\xeb"\x95?'
p4613
tp4614
Rp4615
tp4616
a(I0
g10
(g14
S'\x85M\xca9\xbd"\x95?'
p4617
tp4618
Rp4619
tp4620
a(I0
g10
(g14
S'\xaf\x82\xc4\xe1\xb5\xf7\x94?'
p4621
tp4622
Rp4623
tp4624
a(I0
g10
(g14
S'3Y\x18qc\xef\x94?'
p4625
tp4626
Rp4627
tp4628
a(I0
g10
(g14
S'\xfb\xe7\x1e\xe6T\xc8\x94?'
p4629
tp4630
Rp4631
tp4632
a(I0
g10
(g14
S'\xd6\x05\x9c\x98\xfb\xc4\x94?'
p4633
tp4634
Rp4635
tp4636
a(I0
g10
(g14
S'\x14\xd3\xb8\x14\xd3\xb8\x94?'
p4637
tp4638
Rp4639
tp4640
a(I0
g10
(g14
S'e\xc6\xa3FA\xb8\x94?'
p4641
tp4642
Rp4643
tp4644
a(I0
g10
(g14
S'\x86\xba`*+\x9e\x94?'
p4645
tp4646
Rp4647
tp4648
a(I0
g10
(g14
S'\x18\xe1\x19\xab7K\x94?'
p4649
tp4650
Rp4651
tp4652
a(I0
g10
(g14
S'{\x87\r\xde>G\x94?'
p4653
tp4654
Rp4655
tp4656
a(I0
g10
(g14
S'8\xc9\xdc\xb4\x91A\x94?'
p4657
tp4658
Rp4659
tp4660
a(I0
g10
(g14
S'\xad8\xe8\xe0k\x1b\x94?'
p4661
tp4662
Rp4663
tp4664
a(I0
g10
(g14
S'ArD\xd3\xe8\xf0\x93?'
p4665
tp4666
Rp4667
tp4668
a(I0
g10
(g14
S'\x8e$!\x84M}\x93?'
p4669
tp4670
Rp4671
tp4672
a(I0
g10
(g14
S'\xf6\x97\xa4\x11nc\x93?'
p4673
tp4674
Rp4675
tp4676
a(I0
g10
(g14
S'\xbc\xcfA\xf7%b\x93?'
p4677
tp4678
Rp4679
tp4680
a(I0
g10
(g14
S'\x16 \xf7\x9a\x0bI\x93?'
p4681
tp4682
Rp4683
tp4684
a(I0
g10
(g14
S'\xd3\xf7@\xd3\xf7@\x93?'
p4685
tp4686
Rp4687
tp4688
a(I0
g10
(g14
S'\xc3\xf7?\xc3\xf7?\x93?'
p4689
tp4690
Rp4691
tp4692
a(I0
g10
(g14
S'\xbf\xcb\x88Ye"\x93?'
p4693
tp4694
Rp4695
tp4696
a(I0
g10
(g14
S'\xc8F\xb2;\x18\xf8\x92?'
p4697
tp4698
Rp4699
tp4700
a(I0
g10
(g14
S'\xbap\xa1\x1c(\xdb\x92?'
p4701
tp4702
Rp4703
tp4704
a(I0
g10
(g14
S'z\x9d\x92\xcd\x1f\xcf\x92?'
p4705
tp4706
Rp4707
tp4708
a(I0
g10
(g14
S'\xfa\x90\xc9\xbe:\xa9\x92?'
p4709
tp4710
Rp4711
tp4712
a(I0
g10
(g14
S'\x9bC$\xb1\xbb\x89\x92?'
p4713
tp4714
Rp4715
tp4716
a(I0
g10
(g14
S'L\xd0\xcd\x15\xeem\x92?'
p4717
tp4718
Rp4719
tp4720
a(I0
g10
(g14
S'l%)\xbd\xf88\x92?'
p4721
tp4722
Rp4723
tp4724
a(I0
g10
(g14
S'\x8c\xad{F\x96\x1e\x92?'
p4725
tp4726
Rp4727
tp4728
a(I0
g10
(g14
S'<(d\xd8\x8b\x1b\x92?'
p4729
tp4730
Rp4731
tp4732
a(I0
g10
(g14
S'8bh#\xcf\x11\x92?'
p4733
tp4734
Rp4735
tp4736
a(I0
g10
(g14
S'jdH&\x17\t\x92?'
p4737
tp4738
Rp4739
tp4740
a(I0
g10
(g14
S'\xc0\xcdA\x1c]\x04\x92?'
p4741
tp4742
Rp4743
tp4744
a(I0
g10
(g14
S'\xecQ\xb8\x1e\x85\xeb\x91?'
p4745
tp4746
Rp4747
tp4748
a(I0
g10
(g14
S'\xecQ\xb8\x1e\x85\xeb\x91?'
p4749
tp4750
Rp4751
tp4752
a(I0
g10
(g14
S'\x85\xdc\x04s\xf8\xda\x91?'
p4753
tp4754
Rp4755
tp4756
a(I0
g10
(g14
S't|\x9b\x17\x08\xca\x91?'
p4757
tp4758
Rp4759
tp4760
a(I0
g10
(g14
S'\xc3\x1cH:\x82\xc9\x91?'
p4761
tp4762
Rp4763
tp4764
a(I0
g10
(g14
S'2\xe0\xc61\xe0\xc6\x91?'
p4765
tp4766
Rp4767
tp4768
a(I0
g10
(g14
S'\x9f \x81\x92\x9a\xb0\x91?'
p4769
tp4770
Rp4771
tp4772
a(I0
g10
(g14
S'D\x8bl\xe7\xfb\xa9\x91?'
p4773
tp4774
Rp4775
tp4776
a(I0
g10
(g14
S'\x06\xfa\x10M\xdb\x8b\x91?'
p4777
tp4778
Rp4779
tp4780
a(I0
g10
(g14
S'\xb2p\x149&\x84\x91?'
p4781
tp4782
Rp4783
tp4784
a(I0
g10
(g14
S'\x1b(\xe7\xf3\x95u\x91?'
p4785
tp4786
Rp4787
tp4788
a(I0
g10
(g14
S'\xeb\r<\x1eAo\x91?'
p4789
tp4790
Rp4791
tp4792
a(I0
g10
(g14
S'\xa9X\xa7Q\xde?\x91?'
p4793
tp4794
Rp4795
tp4796
a(I0
g10
(g14
S'\x8c\x13\x0b\xdc\xe6\x1a\x91?'
p4797
tp4798
Rp4799
tp4800
a(I0
g10
(g14
S'\xaa\x8e\xcf\xdd\xc1\x02\x91?'
p4801
tp4802
Rp4803
tp4804
a(I0
g10
(g14
S'\xda@\xa7\rt\xda\x90?'
p4805
tp4806
Rp4807
tp4808
a(I0
g10
(g14
S'\x86]\x01r\xaf\xb9\x90?'
p4809
tp4810
Rp4811
tp4812
a(I0
g10
(g14
S'\x86]\x01r\xaf\xb9\x90?'
p4813
tp4814
Rp4815
tp4816
a(I0
g10
(g14
S'R\xbb\xc7_&\xa7\x90?'
p4817
tp4818
Rp4819
tp4820
a(I0
g10
(g14
S'Q\xd8\xbdnx\x9a\x90?'
p4821
tp4822
Rp4823
tp4824
a(I0
g10
(g14
S'\xfd\xbaI\x1e\nS\x90?'
p4825
tp4826
Rp4827
tp4828
a(I0
g10
(g14
S'J\x90\xa7\x04yJ\x90?'
p4829
tp4830
Rp4831
tp4832
a(I0
g10
(g14
S'6\xd0i\x03\x9d6\x90?'
p4833
tp4834
Rp4835
tp4836
a(I0
g10
(g14
S'\x12\xad|&q+\x90?'
p4837
tp4838
Rp4839
tp4840
a(I0
g10
(g14
S'\x9f\x87<\xbe\x0c(\x90?'
p4841
tp4842
Rp4843
tp4844
a(I0
g10
(g14
S'\xb4[i\xdd\xb7\xf8\x8f?'
p4845
tp4846
Rp4847
tp4848
a(I0
g10
(g14
S'=\xf57\xa9\xd4\xe8\x8f?'
p4849
tp4850
Rp4851
tp4852
a(I0
g10
(g14
S'\xb1R\xf9\x18\x83}\x8f?'
p4853
tp4854
Rp4855
tp4856
a(I0
g10
(g14
S'\xc6t\xc5\xa1\xacq\x8f?'
p4857
tp4858
Rp4859
tp4860
a(I0
g10
(g14
S'\\\t\xa0\xd7\x1dN\x8f?'
p4861
tp4862
Rp4863
tp4864
a(I0
g10
(g14
S'\xbc\xedDd\xd7\xcc\x8e?'
p4865
tp4866
Rp4867
tp4868
a(I0
g10
(g14
S'rRZ\xd8\xb8\xc0\x8e?'
p4869
tp4870
Rp4871
tp4872
a(I0
g10
(g14
S'\xdc\xf5gV\n\x16\x8e?'
p4873
tp4874
Rp4875
tp4876
a(I0
g10
(g14
S'\xdd\xdd\xdd\xdd\xdd\xdd\x8d?'
p4877
tp4878
Rp4879
tp4880
a(I0
g10
(g14
S'\xda\xb4t\xddH\xb0\x8d?'
p4881
tp4882
Rp4883
tp4884
a(I0
g10
(g14
S'\xear\xfb\x83\x0c\x95\x8d?'
p4885
tp4886
Rp4887
tp4888
a(I0
g10
(g14
S'\xc9v\xbe\x9f\x1a/\x8d?'
p4889
tp4890
Rp4891
tp4892
a(I0
g10
(g14
S'x\xca\xf4\x8b\x93-\x8d?'
p4893
tp4894
Rp4895
tp4896
a(I0
g10
(g14
S'*\x1d\xb2\xd2!+\x8d?'
p4897
tp4898
Rp4899
tp4900
a(I0
g10
(g14
S'\x1a\xab\xd8\x1c?\x14\x8d?'
p4901
tp4902
Rp4903
tp4904
a(I0
g10
(g14
S'\xefIf\x92\xba\xa3\x8c?'
p4905
tp4906
Rp4907
tp4908
a(I0
g10
(g14
S'|\xc5W|\xc5W\x8c?'
p4909
tp4910
Rp4911
tp4912
a(I0
g10
(g14
S'\xee\x1b\xd6\xbea\xed\x8b?'
p4913
tp4914
Rp4915
tp4916
a(I0
g10
(g14
S'\xfa\xb0\xf3d\x90\xa4\x8b?'
p4917
tp4918
Rp4919
tp4920
a(I0
g10
(g14
S'\xf2\xf82\xa0@\x14\x8b?'
p4921
tp4922
Rp4923
tp4924
a(I0
g10
(g14
S':\xbb8w\xc5\x0f\x8b?'
p4925
tp4926
Rp4927
tp4928
a(I0
g10
(g14
S'\x96\xd6}\x8b\xff\xd9\x8a?'
p4929
tp4930
Rp4931
tp4932
a(I0
g10
(g14
S'\x1c\xad\xd1\x1a\xad\xd1\x8a?'
p4933
tp4934
Rp4935
tp4936
a(I0
g10
(g14
S'\x81w\xdeMD\xab\x8a?'
p4937
tp4938
Rp4939
tp4940
a(I0
g10
(g14
S'}\r\xd0\xc5\xeeJ\x8a?'
p4941
tp4942
Rp4943
tp4944
a(I0
g10
(g14
S'\xf3\xd3\xd8&\x07\x0c\x8a?'
p4945
tp4946
Rp4947
tp4948
a(I0
g10
(g14
S'\xb3\xc9\xf8_6\xdf\x89?'
p4949
tp4950
Rp4951
tp4952
a(I0
g10
(g14
S'\x9a\x99\x99\x99\x99\x99\x89?'
p4953
tp4954
Rp4955
tp4956
a(I0
g10
(g14
S'l\x08?\x0fy|\x89?'
p4957
tp4958
Rp4959
tp4960
a(I0
g10
(g14
S'_Y\xe0\x95\x05^\x89?'
p4961
tp4962
Rp4963
tp4964
a(I0
g10
(g14
S'\xe6,\x9b\x7f\xc64\x89?'
p4965
tp4966
Rp4967
tp4968
a(I0
g10
(g14
S'Z=\xe8g\xa8\xc7\x88?'
p4969
tp4970
Rp4971
tp4972
a(I0
g10
(g14
S'\x93\xaf\r\x89\xd8i\x88?'
p4973
tp4974
Rp4975
tp4976
a(I0
g10
(g14
S'\xecyL\xbb\xbfc\x88?'
p4977
tp4978
Rp4979
tp4980
a(I0
g10
(g14
S'R\xb8\x1e\x85\xebQ\x88?'
p4981
tp4982
Rp4983
tp4984
a(I0
g10
(g14
S'\xa6\x95\xfeC\x16\xe6\x87?'
p4985
tp4986
Rp4987
tp4988
a(I0
g10
(g14
S'\xe5\x17K~\xb1\xe4\x87?'
p4989
tp4990
Rp4991
tp4992
a(I0
g10
(g14
S'\xcf\xb0+@\xee5\x87?'
p4993
tp4994
Rp4995
tp4996
a(I0
g10
(g14
S'\n\xd7\xa3p=\n\x87?'
p4997
tp4998
Rp4999
tp5000
a(I0
g10
(g14
S'\xcf\x96\xeal\xa9\xce\x86?'
p5001
tp5002
Rp5003
tp5004
a(I0
g10
(g14
S'\xbbI\x0c\x02+\x87\x86?'
p5005
tp5006
Rp5007
tp5008
a(I0
g10
(g14
S'\xbbI\x0c\x02+\x87\x86?'
p5009
tp5010
Rp5011
tp5012
a(I0
g10
(g14
S'I\xc7\xa7\xaf-\x0e\x86?'
p5013
tp5014
Rp5015
tp5016
a(I0
g10
(g14
S'\x97\x92\xd0\x87L\xf6\x85?'
p5017
tp5018
Rp5019
tp5020
a(I0
g10
(g14
S'\x8c\xbf0w\x11\xe9\x85?'
p5021
tp5022
Rp5023
tp5024
a(I0
g10
(g14
S'<\x11\xd95\xb3\x7f\x85?'
p5025
tp5026
Rp5027
tp5028
a(I0
g10
(g14
S'\x1a\x15\x9cQ\xc1\x19\x85?'
p5029
tp5030
Rp5031
tp5032
a(I0
g10
(g14
S'{\x14\xaeG\xe1z\x84?'
p5033
tp5034
Rp5035
tp5036
a(I0
g10
(g14
S'{\x14\xaeG\xe1z\x84?'
p5037
tp5038
Rp5039
tp5040
a(I0
g10
(g14
S'-\x81\xe83\xa9_\x84?'
p5041
tp5042
Rp5043
tp5044
a(I0
g10
(g14
S'?\xd4\xf4CM?\x84?'
p5045
tp5046
Rp5047
tp5048
a(I0
g10
(g14
S'\x98`\x99*\xb7\xca\x83?'
p5049
tp5050
Rp5051
tp5052
a(I0
g10
(g14
S'\xea5~M\xd2\xc6\x83?'
p5053
tp5054
Rp5055
tp5056
a(I0
g10
(g14
S'\xa1\xd3\x06:m\xa0\x83?'
p5057
tp5058
Rp5059
tp5060
a(I0
g10
(g14
S'R\x05\xaeaK\x88\x83?'
p5061
tp5062
Rp5063
tp5064
a(I0
g10
(g14
S'\xc6\x17\xa5YS\xe5\x82?'
p5065
tp5066
Rp5067
tp5068
a(I0
g10
(g14
S'E\x12\xdf\xabxE\x82?'
p5069
tp5070
Rp5071
tp5072
a(I0
g10
(g14
S'E\x12\xdf\xabxE\x82?'
p5073
tp5074
Rp5075
tp5076
a(I0
g10
(g14
S'm3\xc6%RK\x81?'
p5077
tp5078
Rp5079
tp5080
a(I0
g10
(g14
S'wfUD3"\x81?'
p5081
tp5082
Rp5083
tp5084
a(I0
g10
(g14
S'D\x04\x0e\xaajt\x80?'
p5085
tp5086
Rp5087
tp5088
a(I0
g10
(g14
S'Vy\xf2\x9b\x90O\x80?'
p5089
tp5090
Rp5091
tp5092
a(I0
g10
(g14
S"p\x02'p\x02'\x80?"
p5093
tp5094
Rp5095
tp5096
a(I0
g10
(g14
S'[\x86vAD\xf3\x7f?'
p5097
tp5098
Rp5099
tp5100
a(I0
g10
(g14
S'!V\x87=,F\x7f?'
p5101
tp5102
Rp5103
tp5104
a(I0
g10
(g14
S'$\xb1\\[]\xda~?'
p5105
tp5106
Rp5107
tp5108
a(I0
g10
(g14
S'\xb8\x1e\x85\xebQ\xb8~?'
p5109
tp5110
Rp5111
tp5112
a(I0
g10
(g14
S'\x91>\x1c\xf7\xa4\x82}?'
p5113
tp5114
Rp5115
tp5116
a(I0
g10
(g14
S'\xf2\xb6[\xb1\xfdW}?'
p5117
tp5118
Rp5119
tp5120
a(I0
g10
(g14
S'\xc3\x82\x92\x8eO_{?'
p5121
tp5122
Rp5123
tp5124
a(I0
g10
(g14
S'\x9d\xe7\\\x13h\xcfz?'
p5125
tp5126
Rp5127
tp5128
a(I0
g10
(g14
S'\x8d\x04|\xf3j\xe2y?'
p5129
tp5130
Rp5131
tp5132
a(I0
g10
(g14
S'8\xb3\xc7u\xbd\x9ey?'
p5133
tp5134
Rp5135
tp5136
a(I0
g10
(g14
S'\x9a\x99\x99\x99\x99\x99y?'
p5137
tp5138
Rp5139
tp5140
a(I0
g10
(g14
S'#\x19\'\x92q"y?'
p5141
tp5142
Rp5143
tp5144
a(I0
g10
(g14
S'\xe4L\xc8~\xe6ax?'
p5145
tp5146
Rp5147
tp5148
a(I0
g10
(g14
S'\xbd\x97\xcf{\xf9\xbcw?'
p5149
tp5150
Rp5151
tp5152
a(I0
g10
(g14
S'MQ|\xcf\x8d\xa1w?'
p5153
tp5154
Rp5155
tp5156
a(I0
g10
(g14
S"\xe4\xe3\xc8\xd7'\x16w?"
p5157
tp5158
Rp5159
tp5160
a(I0
g10
(g14
S's\x8ev+\xad\xfbv?'
p5161
tp5162
Rp5163
tp5164
a(I0
g10
(g14
S'i\xd4\xfe\x0bE<v?'
p5165
tp5166
Rp5167
tp5168
a(I0
g10
(g14
S'\x98\xc0.\xb4\x96\xedu?'
p5169
tp5170
Rp5171
tp5172
a(I0
g10
(g14
S'\x118\xae\x108\xaep?'
p5173
tp5174
Rp5175
tp5176
a(I0
g10
(g14
S'\xca\x1d\xa0\xdc\x01\xcam?'
p5177
tp5178
Rp5179
tp5180
a(I0
g10
(g14
S'\xea\x90\xf9\x83*\x93m?'
p5181
tp5182
Rp5183
tp5184
a(I0
g10
(g14
S'N\x1b\xe8\xb4\x81Nk?'
p5185
tp5186
Rp5187
tp5188
a(I0
g10
(g14
S'N\x1b\xe8\xb4\x81Nk?'
p5189
tp5190
Rp5191
tp5192
a(I0
g10
(g14
S'\xb3=\xed\xe5p i?'
p5193
tp5194
Rp5195
tp5196
a(I0
g10
(g14
S'\xe4\x17K~\xb1\xe4g?'
p5197
tp5198
Rp5199
tp5200
a(I0
g10
(g14
S'\xb1\xa94\xe4\xdcgg?'
p5201
tp5202
Rp5203
tp5204
a(I0
g10
(g14
S'\xcf\x96\xeal\xa9\xcef?'
p5205
tp5206
Rp5207
tp5208
a(I0
g10
(g14
S'\xada\xb4\xdf\x94\xe7b?'
p5209
tp5210
Rp5211
tp5212
a(I0
g10
(g14
S'\xada\xb4\xdf\x94\xe7b?'
p5213
tp5214
Rp5215
tp5216
a(I0
g10
(g14
S'\xada\xb4\xdf\x94\xe7b?'
p5217
tp5218
Rp5219
tp5220
a(I0
g10
(g14
S'\xb8\x1e\x85\xebQ\xb8^?'
p5221
tp5222
Rp5223
tp5224
a(I0
g10
(g14
S'O\x1b\xe8\xb4\x81N[?'
p5225
tp5226
Rp5227
tp5228
a(I0
g10
(g14
S'\xa5\xe2\xec\xc3g\xd8U?'
p5229
tp5230
Rp5231
tp5232
a(I0
g10
(g14
S'\xe4\x94\x90(\xbb\x8bS?'
p5233
tp5234
Rp5235
tp5236
a(I0
g10
(g14
S'\xdf\xbc\x9axV4R?'
p5237
tp5238
Rp5239
tp5240
a(I0
g10
(g14
S'\xca\x1d\xa0\xdc\x01\xcaM?'
p5241
tp5242
Rp5243
tp5244
a(I0
g10
(g14
S'\xe6,\x9b\x7f\xc64I?'
p5245
tp5246
Rp5247
tp5248
a(I0
g10
(g14
S'\xb1\xa94\xe4\xdcgG?'
p5249
tp5250
Rp5251
tp5252
a(I0
g10
(g14
S'{\x14\xaeG\xe1zD?'
p5253
tp5254
Rp5255
tp5256
a(I0
g10
(g14
S'{\x14\xaeG\xe1zD?'
p5257
tp5258
Rp5259
tp5260
a(I0
g10
(g14
S'\x00\x00\x00\x00\x00\x00\x00\x00'
p5261
tp5262
Rp5263
tp5264
a(I0
g10
(g14
S'\x00\x00\x00\x00\x00\x00\x00\x00'
p5265
tp5266
Rp5267
tp5268
asS'derived_points'
p5269
(lp5270
(I0
I0
F0.0
tp5271
a(F0.0
F0.002398081534772182
F0.0
tp5272
a(F0.0
F0.004796163069544364
F0.0
tp5273
a(F0.0
F0.007194244604316547
F0.0
tp5274
a(F0.0
F0.009592326139088728
F0.0
tp5275
a(F0.0
F0.011990407673860911
F0.0
tp5276
a(F0.0
F0.014388489208633094
F0.0
tp5277
a(F0.0
F0.016786570743405275
F0.0
tp5278
a(F0.0
F0.019184652278177457
F0.0
tp5279
a(F0.0
F0.02158273381294964
F0.0
tp5280
a(F0.0
F0.023980815347721823
F0.0
tp5281
a(F0.0
F0.026378896882494004
F0.0
tp5282
a(F0.0
F0.02877697841726619
F0.0
tp5283
a(F0.0
F0.03117505995203837
F0.0
tp5284
a(F0.0
F0.03357314148681055
F0.0
tp5285
a(F0.0
F0.03597122302158273
F0.0
tp5286
a(F0.0
F0.03836930455635491
F0.0
tp5287
a(F0.0
F0.0407673860911271
F0.0
tp5288
a(F0.0
F0.04316546762589928
F0.0
tp5289
a(F0.0
F0.045563549160671464
F0.0
tp5290
a(F0.0
F0.047961630695443645
F0.0
tp5291
a(F0.0
F0.050359712230215826
F0.0
tp5292
a(F0.0
F0.05275779376498801
F0.0
tp5293
a(F0.0
F0.05515587529976019
F0.0
tp5294
a(F0.0
F0.05755395683453238
F0.0
tp5295
a(F0.0
F0.05995203836930456
F0.0
tp5296
a(F0.0
F0.06235011990407674
F0.0
tp5297
a(F0.0
F0.06474820143884892
F0.0
tp5298
a(F0.0
F0.0671462829736211
F0.0
tp5299
a(F0.0
F0.06954436450839328
F0.0
tp5300
a(F0.0
F0.07194244604316546
F0.0
tp5301
a(F0.0
F0.07434052757793765
F0.0
tp5302
a(F0.0
F0.07673860911270983
F0.0
tp5303
a(F0.0
F0.07913669064748201
F0.0
tp5304
a(F0.0
F0.0815347721822542
F0.0
tp5305
a(F0.0
F0.08393285371702638
F0.0
tp5306
a(F0.0
F0.08633093525179857
F0.0
tp5307
a(F0.0
F0.08872901678657075
F0.0
tp5308
a(F0.0
F0.09112709832134293
F0.0
tp5309
a(F0.0
F0.09352517985611511
F0.0
tp5310
a(F0.0
F0.09592326139088729
F0.0
tp5311
a(F0.0
F0.09832134292565947
F0.0
tp5312
a(F0.0
F0.10071942446043165
F0.0
tp5313
a(F0.0
F0.10311750599520383
F0.0
tp5314
a(F0.0
F0.10551558752997602
F0.0
tp5315
a(F0.0
F0.1079136690647482
F0.0
tp5316
a(F0.0
F0.11031175059952038
F0.0
tp5317
a(F0.0
F0.11270983213429256
F0.0
tp5318
a(F0.0
F0.11510791366906475
F0.0
tp5319
a(F0.0
F0.11750599520383694
F0.0
tp5320
a(F0.0
F0.11990407673860912
F0.0
tp5321
a(F0.0
F0.1223021582733813
F0.0
tp5322
a(F0.0
F0.12470023980815348
F0.0
tp5323
a(F0.0
F0.12709832134292565
F0.0
tp5324
a(F0.0
F0.12949640287769784
F0.0
tp5325
a(F0.0
F0.13189448441247004
F0.0
tp5326
a(F0.0
F0.1342925659472422
F0.0
tp5327
a(F0.0
F0.1366906474820144
F0.0
tp5328
a(F0.0
F0.13908872901678657
F0.0
tp5329
a(F0.0
F0.14148681055155876
F0.0
tp5330
a(F0.0
F0.14388489208633093
F0.0
tp5331
a(F0.0
F0.14628297362110312
F0.0
tp5332
a(F0.0
F0.1486810551558753
F0.0
tp5333
a(F0.0
F0.1510791366906475
F0.0
tp5334
a(F0.0
F0.15347721822541965
F0.0
tp5335
a(F0.0
F0.15587529976019185
F0.0
tp5336
a(F0.0
F0.15827338129496402
F0.0
tp5337
a(F0.0
F0.1606714628297362
F0.0
tp5338
a(F0.0
F0.1630695443645084
F0.0
tp5339
a(F0.0
F0.16546762589928057
F0.0
tp5340
a(F0.0
F0.16786570743405277
F0.0
tp5341
a(F0.0
F0.17026378896882494
F0.0
tp5342
a(F0.0
F0.17266187050359713
F0.0
tp5343
a(F0.0
F0.1750599520383693
F0.0
tp5344
a(F0.0
F0.1774580335731415
F0.0
tp5345
a(F0.0
F0.17985611510791366
F0.0
tp5346
a(F0.0
F0.18225419664268586
F0.0
tp5347
a(F0.0
F0.18465227817745802
F0.0
tp5348
a(F0.0
F0.18705035971223022
F0.0
tp5349
a(F0.0
F0.18944844124700239
F0.0
tp5350
a(F0.0
F0.19184652278177458
F0.0
tp5351
a(F0.0
F0.19424460431654678
F0.0
tp5352
a(F0.0
F0.19664268585131894
F0.0
tp5353
a(F0.0
F0.19904076738609114
F0.0
tp5354
a(F0.0
F0.2014388489208633
F0.0
tp5355
a(F0.0
F0.2038369304556355
F0.0
tp5356
a(F0.0
F0.20623501199040767
F0.0
tp5357
a(F0.0
F0.20863309352517986
F0.0
tp5358
a(F0.0
F0.21103117505995203
F0.0
tp5359
a(F0.0
F0.21342925659472423
F0.0
tp5360
a(F0.0
F0.2158273381294964
F0.0
tp5361
a(F0.0
F0.2182254196642686
F0.0
tp5362
a(F0.0
F0.22062350119904076
F0.0
tp5363
a(F0.0
F0.22302158273381295
F0.0
tp5364
a(F0.0
F0.22541966426858512
F0.0
tp5365
a(F0.0
F0.2278177458033573
F0.0
tp5366
a(F0.0
F0.2302158273381295
F0.0
tp5367
a(F0.0
F0.23261390887290168
F0.0
tp5368
a(F0.0
F0.23501199040767387
F0.0
tp5369
a(F0.0
F0.23741007194244604
F0.0
tp5370
a(F0.0
F0.23980815347721823
F0.0
tp5371
a(F0.0
F0.2422062350119904
F0.0
tp5372
a(F0.0
F0.2446043165467626
F0.0
tp5373
a(F0.0
F0.24700239808153476
F0.0
tp5374
a(F0.0
F0.24940047961630696
F0.0
tp5375
a(F0.0011160714285714285
F0.24940047961630696
F1.0
tp5376
a(F0.0011160714285714285
F0.2517985611510791
F1.0
tp5377
a(F0.0011160714285714285
F0.2541966426858513
F1.0
tp5378
a(F0.0011160714285714285
F0.2565947242206235
F1.0
tp5379
a(F0.0011160714285714285
F0.2589928057553957
F1.0
tp5380
a(F0.0011160714285714285
F0.26139088729016785
F1.0
tp5381
a(F0.0011160714285714285
F0.2637889688249401
F1.0
tp5382
a(F0.0011160714285714285
F0.26618705035971224
F1.0
tp5383
a(F0.0011160714285714285
F0.2685851318944844
F1.0
tp5384
a(F0.002232142857142857
F0.2685851318944844
F2.0
tp5385
a(F0.002232142857142857
F0.2709832134292566
F2.0
tp5386
a(F0.002232142857142857
F0.2733812949640288
F2.0
tp5387
a(F0.002232142857142857
F0.27577937649880097
F2.0
tp5388
a(F0.002232142857142857
F0.27817745803357313
F2.0
tp5389
a(F0.002232142857142857
F0.2805755395683453
F2.0
tp5390
a(F0.002232142857142857
F0.2829736211031175
F2.0
tp5391
a(F0.002232142857142857
F0.2853717026378897
F2.0
tp5392
a(F0.002232142857142857
F0.28776978417266186
F2.0
tp5393
a(F0.002232142857142857
F0.290167865707434
F2.0
tp5394
a(F0.002232142857142857
F0.29256594724220625
F2.0
tp5395
a(F0.002232142857142857
F0.2949640287769784
F2.0
tp5396
a(F0.002232142857142857
F0.2973621103117506
F2.0
tp5397
a(F0.002232142857142857
F0.2997601918465228
F2.0
tp5398
a(F0.002232142857142857
F0.302158273381295
F2.0
tp5399
a(F0.002232142857142857
F0.30455635491606714
F2.0
tp5400
a(F0.002232142857142857
F0.3069544364508393
F2.0
tp5401
a(F0.002232142857142857
F0.30935251798561153
F2.0
tp5402
a(F0.002232142857142857
F0.3117505995203837
F2.0
tp5403
a(F0.002232142857142857
F0.31414868105515587
F2.0
tp5404
a(F0.002232142857142857
F0.31654676258992803
F2.0
tp5405
a(F0.002232142857142857
F0.31894484412470026
F2.0
tp5406
a(F0.002232142857142857
F0.3213429256594724
F2.0
tp5407
a(F0.002232142857142857
F0.3237410071942446
F2.0
tp5408
a(F0.002232142857142857
F0.3261390887290168
F2.0
tp5409
a(F0.002232142857142857
F0.328537170263789
F2.0
tp5410
a(F0.002232142857142857
F0.33093525179856115
F2.0
tp5411
a(F0.002232142857142857
F0.3333333333333333
F2.0
tp5412
a(F0.002232142857142857
F0.33573141486810554
F2.0
tp5413
a(F0.002232142857142857
F0.3381294964028777
F2.0
tp5414
a(F0.002232142857142857
F0.3405275779376499
F2.0
tp5415
a(F0.002232142857142857
F0.34292565947242204
F2.0
tp5416
a(F0.002232142857142857
F0.34532374100719426
F2.0
tp5417
a(F0.002232142857142857
F0.34772182254196643
F2.0
tp5418
a(F0.002232142857142857
F0.3501199040767386
F2.0
tp5419
a(F0.002232142857142857
F0.35251798561151076
F2.0
tp5420
a(F0.002232142857142857
F0.354916067146283
F2.0
tp5421
a(F0.002232142857142857
F0.35731414868105515
F2.0
tp5422
a(F0.002232142857142857
F0.3597122302158273
F2.0
tp5423
a(F0.002232142857142857
F0.36211031175059955
F2.0
tp5424
a(F0.002232142857142857
F0.3645083932853717
F2.0
tp5425
a(F0.002232142857142857
F0.3669064748201439
F2.0
tp5426
a(F0.002232142857142857
F0.36930455635491605
F2.0
tp5427
a(F0.002232142857142857
F0.37170263788968827
F2.0
tp5428
a(F0.002232142857142857
F0.37410071942446044
F2.0
tp5429
a(F0.002232142857142857
F0.3764988009592326
F2.0
tp5430
a(F0.002232142857142857
F0.37889688249400477
F2.0
tp5431
a(F0.002232142857142857
F0.381294964028777
F2.0
tp5432
a(F0.002232142857142857
F0.38369304556354916
F2.0
tp5433
a(F0.002232142857142857
F0.38609112709832133
F2.0
tp5434
a(F0.002232142857142857
F0.38848920863309355
F2.0
tp5435
a(F0.002232142857142857
F0.3908872901678657
F2.0
tp5436
a(F0.002232142857142857
F0.3932853717026379
F2.0
tp5437
a(F0.002232142857142857
F0.39568345323741005
F2.0
tp5438
a(F0.002232142857142857
F0.3980815347721823
F2.0
tp5439
a(F0.002232142857142857
F0.40047961630695444
F2.0
tp5440
a(F0.002232142857142857
F0.4028776978417266
F2.0
tp5441
a(F0.002232142857142857
F0.4052757793764988
F2.0
tp5442
a(F0.002232142857142857
F0.407673860911271
F2.0
tp5443
a(F0.002232142857142857
F0.41007194244604317
F2.0
tp5444
a(F0.002232142857142857
F0.41247002398081534
F2.0
tp5445
a(F0.002232142857142857
F0.4148681055155875
F2.0
tp5446
a(F0.002232142857142857
F0.4172661870503597
F2.0
tp5447
a(F0.002232142857142857
F0.4196642685851319
F2.0
tp5448
a(F0.0033482142857142855
F0.4196642685851319
F3.0
tp5449
a(F0.0033482142857142855
F0.42206235011990406
F3.0
tp5450
a(F0.0033482142857142855
F0.4244604316546763
F3.0
tp5451
a(F0.0033482142857142855
F0.42685851318944845
F3.0
tp5452
a(F0.0033482142857142855
F0.4292565947242206
F3.0
tp5453
a(F0.0033482142857142855
F0.4316546762589928
F3.0
tp5454
a(F0.0033482142857142855
F0.434052757793765
F3.0
tp5455
a(F0.0033482142857142855
F0.4364508393285372
F3.0
tp5456
a(F0.0033482142857142855
F0.43884892086330934
F3.0
tp5457
a(F0.0033482142857142855
F0.4412470023980815
F3.0
tp5458
a(F0.0033482142857142855
F0.44364508393285373
F3.0
tp5459
a(F0.0033482142857142855
F0.4460431654676259
F3.0
tp5460
a(F0.0033482142857142855
F0.44844124700239807
F3.0
tp5461
a(F0.004464285714285714
F0.44844124700239807
F4.0
tp5462
a(F0.004464285714285714
F0.45083932853717024
F4.0
tp5463
a(F0.004464285714285714
F0.45323741007194246
F4.0
tp5464
a(F0.004464285714285714
F0.4556354916067146
F4.0
tp5465
a(F0.004464285714285714
F0.4580335731414868
F4.0
tp5466
a(F0.004464285714285714
F0.460431654676259
F4.0
tp5467
a(F0.004464285714285714
F0.4628297362110312
F4.0
tp5468
a(F0.004464285714285714
F0.46522781774580335
F4.0
tp5469
a(F0.004464285714285714
F0.4676258992805755
F4.0
tp5470
a(F0.004464285714285714
F0.47002398081534774
F4.0
tp5471
a(F0.004464285714285714
F0.4724220623501199
F4.0
tp5472
a(F0.004464285714285714
F0.4748201438848921
F4.0
tp5473
a(F0.004464285714285714
F0.47721822541966424
F4.0
tp5474
a(F0.004464285714285714
F0.47961630695443647
F4.0
tp5475
a(F0.004464285714285714
F0.48201438848920863
F4.0
tp5476
a(F0.004464285714285714
F0.4844124700239808
F4.0
tp5477
a(F0.004464285714285714
F0.486810551558753
F4.0
tp5478
a(F0.004464285714285714
F0.4892086330935252
F4.0
tp5479
a(F0.004464285714285714
F0.49160671462829736
F4.0
tp5480
a(F0.004464285714285714
F0.4940047961630695
F4.0
tp5481
a(F0.004464285714285714
F0.49640287769784175
F4.0
tp5482
a(F0.004464285714285714
F0.4988009592326139
F4.0
tp5483
a(F0.004464285714285714
F0.5011990407673861
F4.0
tp5484
a(F0.004464285714285714
F0.5035971223021583
F4.0
tp5485
a(F0.004464285714285714
F0.5059952038369304
F4.0
tp5486
a(F0.004464285714285714
F0.5083932853717026
F4.0
tp5487
a(F0.004464285714285714
F0.5107913669064749
F4.0
tp5488
a(F0.004464285714285714
F0.513189448441247
F4.0
tp5489
a(F0.004464285714285714
F0.5155875299760192
F4.0
tp5490
a(F0.004464285714285714
F0.5179856115107914
F4.0
tp5491
a(F0.004464285714285714
F0.5203836930455635
F4.0
tp5492
a(F0.004464285714285714
F0.5227817745803357
F4.0
tp5493
a(F0.004464285714285714
F0.5251798561151079
F4.0
tp5494
a(F0.004464285714285714
F0.5275779376498801
F4.0
tp5495
a(F0.004464285714285714
F0.5299760191846523
F4.0
tp5496
a(F0.004464285714285714
F0.5323741007194245
F4.0
tp5497
a(F0.004464285714285714
F0.5347721822541966
F4.0
tp5498
a(F0.004464285714285714
F0.5371702637889688
F4.0
tp5499
a(F0.004464285714285714
F0.539568345323741
F4.0
tp5500
a(F0.004464285714285714
F0.5419664268585132
F4.0
tp5501
a(F0.004464285714285714
F0.5443645083932853
F4.0
tp5502
a(F0.004464285714285714
F0.5467625899280576
F4.0
tp5503
a(F0.004464285714285714
F0.5491606714628298
F4.0
tp5504
a(F0.004464285714285714
F0.5515587529976019
F4.0
tp5505
a(F0.004464285714285714
F0.5539568345323741
F4.0
tp5506
a(F0.004464285714285714
F0.5563549160671463
F4.0
tp5507
a(F0.004464285714285714
F0.5587529976019184
F4.0
tp5508
a(F0.004464285714285714
F0.5611510791366906
F4.0
tp5509
a(F0.004464285714285714
F0.5635491606714629
F4.0
tp5510
a(F0.004464285714285714
F0.565947242206235
F4.0
tp5511
a(F0.004464285714285714
F0.5683453237410072
F4.0
tp5512
a(F0.004464285714285714
F0.5707434052757794
F4.0
tp5513
a(F0.004464285714285714
F0.5731414868105515
F4.0
tp5514
a(F0.004464285714285714
F0.5755395683453237
F4.0
tp5515
a(F0.004464285714285714
F0.5779376498800959
F4.0
tp5516
a(F0.004464285714285714
F0.580335731414868
F4.0
tp5517
a(F0.004464285714285714
F0.5827338129496403
F4.0
tp5518
a(F0.004464285714285714
F0.5851318944844125
F4.0
tp5519
a(F0.004464285714285714
F0.5875299760191847
F4.0
tp5520
a(F0.004464285714285714
F0.5899280575539568
F4.0
tp5521
a(F0.004464285714285714
F0.592326139088729
F4.0
tp5522
a(F0.004464285714285714
F0.5947242206235012
F4.0
tp5523
a(F0.004464285714285714
F0.5971223021582733
F4.0
tp5524
a(F0.004464285714285714
F0.5995203836930456
F4.0
tp5525
a(F0.005580357142857143
F0.5995203836930456
F5.0
tp5526
a(F0.005580357142857143
F0.6019184652278178
F5.0
tp5527
a(F0.005580357142857143
F0.60431654676259
F5.0
tp5528
a(F0.005580357142857143
F0.6067146282973621
F5.0
tp5529
a(F0.005580357142857143
F0.6091127098321343
F5.0
tp5530
a(F0.005580357142857143
F0.6115107913669064
F5.0
tp5531
a(F0.005580357142857143
F0.6139088729016786
F5.0
tp5532
a(F0.005580357142857143
F0.6163069544364509
F5.0
tp5533
a(F0.005580357142857143
F0.6187050359712231
F5.0
tp5534
a(F0.005580357142857143
F0.6211031175059952
F5.0
tp5535
a(F0.005580357142857143
F0.6235011990407674
F5.0
tp5536
a(F0.005580357142857143
F0.6258992805755396
F5.0
tp5537
a(F0.005580357142857143
F0.6282973621103117
F5.0
tp5538
a(F0.005580357142857143
F0.6306954436450839
F5.0
tp5539
a(F0.005580357142857143
F0.6330935251798561
F5.0
tp5540
a(F0.005580357142857143
F0.6354916067146283
F5.0
tp5541
a(F0.005580357142857143
F0.6378896882494005
F5.0
tp5542
a(F0.005580357142857143
F0.6402877697841727
F5.0
tp5543
a(F0.005580357142857143
F0.6426858513189448
F5.0
tp5544
a(F0.005580357142857143
F0.645083932853717
F5.0
tp5545
a(F0.005580357142857143
F0.6474820143884892
F5.0
tp5546
a(F0.005580357142857143
F0.6498800959232613
F5.0
tp5547
a(F0.005580357142857143
F0.6522781774580336
F5.0
tp5548
a(F0.005580357142857143
F0.6546762589928058
F5.0
tp5549
a(F0.005580357142857143
F0.657074340527578
F5.0
tp5550
a(F0.005580357142857143
F0.6594724220623501
F5.0
tp5551
a(F0.006696428571428571
F0.6594724220623501
F6.0
tp5552
a(F0.006696428571428571
F0.6618705035971223
F6.0
tp5553
a(F0.006696428571428571
F0.6642685851318945
F6.0
tp5554
a(F0.006696428571428571
F0.6666666666666666
F6.0
tp5555
a(F0.006696428571428571
F0.6690647482014388
F6.0
tp5556
a(F0.006696428571428571
F0.6714628297362111
F6.0
tp5557
a(F0.006696428571428571
F0.6738609112709832
F6.0
tp5558
a(F0.006696428571428571
F0.6762589928057554
F6.0
tp5559
a(F0.006696428571428571
F0.6786570743405276
F6.0
tp5560
a(F0.006696428571428571
F0.6810551558752997
F6.0
tp5561
a(F0.006696428571428571
F0.6834532374100719
F6.0
tp5562
a(F0.006696428571428571
F0.6858513189448441
F6.0
tp5563
a(F0.006696428571428571
F0.6882494004796164
F6.0
tp5564
a(F0.006696428571428571
F0.6906474820143885
F6.0
tp5565
a(F0.006696428571428571
F0.6930455635491607
F6.0
tp5566
a(F0.006696428571428571
F0.6954436450839329
F6.0
tp5567
a(F0.006696428571428571
F0.697841726618705
F6.0
tp5568
a(F0.006696428571428571
F0.7002398081534772
F6.0
tp5569
a(F0.006696428571428571
F0.7026378896882494
F6.0
tp5570
a(F0.006696428571428571
F0.7050359712230215
F6.0
tp5571
a(F0.006696428571428571
F0.7074340527577938
F6.0
tp5572
a(F0.006696428571428571
F0.709832134292566
F6.0
tp5573
a(F0.006696428571428571
F0.7122302158273381
F6.0
tp5574
a(F0.006696428571428571
F0.7146282973621103
F6.0
tp5575
a(F0.006696428571428571
F0.7170263788968825
F6.0
tp5576
a(F0.006696428571428571
F0.7194244604316546
F6.0
tp5577
a(F0.006696428571428571
F0.7218225419664268
F6.0
tp5578
a(F0.006696428571428571
F0.7242206235011991
F6.0
tp5579
a(F0.006696428571428571
F0.7266187050359713
F6.0
tp5580
a(F0.006696428571428571
F0.7290167865707434
F6.0
tp5581
a(F0.006696428571428571
F0.7314148681055156
F6.0
tp5582
a(F0.006696428571428571
F0.7338129496402878
F6.0
tp5583
a(F0.006696428571428571
F0.7362110311750599
F6.0
tp5584
a(F0.006696428571428571
F0.7386091127098321
F6.0
tp5585
a(F0.006696428571428571
F0.7410071942446043
F6.0
tp5586
a(F0.006696428571428571
F0.7434052757793765
F6.0
tp5587
a(F0.006696428571428571
F0.7458033573141487
F6.0
tp5588
a(F0.006696428571428571
F0.7482014388489209
F6.0
tp5589
a(F0.006696428571428571
F0.750599520383693
F6.0
tp5590
a(F0.006696428571428571
F0.7529976019184652
F6.0
tp5591
a(F0.006696428571428571
F0.7553956834532374
F6.0
tp5592
a(F0.006696428571428571
F0.7577937649880095
F6.0
tp5593
a(F0.006696428571428571
F0.7601918465227818
F6.0
tp5594
a(F0.006696428571428571
F0.762589928057554
F6.0
tp5595
a(F0.006696428571428571
F0.7649880095923262
F6.0
tp5596
a(F0.006696428571428571
F0.7673860911270983
F6.0
tp5597
a(F0.006696428571428571
F0.7697841726618705
F6.0
tp5598
a(F0.006696428571428571
F0.7721822541966427
F6.0
tp5599
a(F0.006696428571428571
F0.7745803357314148
F6.0
tp5600
a(F0.006696428571428571
F0.7769784172661871
F6.0
tp5601
a(F0.006696428571428571
F0.7793764988009593
F6.0
tp5602
a(F0.006696428571428571
F0.7817745803357314
F6.0
tp5603
a(F0.006696428571428571
F0.7841726618705036
F6.0
tp5604
a(F0.006696428571428571
F0.7865707434052758
F6.0
tp5605
a(F0.006696428571428571
F0.7889688249400479
F6.0
tp5606
a(F0.006696428571428571
F0.7913669064748201
F6.0
tp5607
a(F0.006696428571428571
F0.7937649880095923
F6.0
tp5608
a(F0.006696428571428571
F0.7961630695443646
F6.0
tp5609
a(F0.006696428571428571
F0.7985611510791367
F6.0
tp5610
a(F0.006696428571428571
F0.8009592326139089
F6.0
tp5611
a(F0.0078125
F0.8009592326139089
F7.0
tp5612
a(F0.0078125
F0.8033573141486811
F7.0
tp5613
a(F0.0078125
F0.8057553956834532
F7.0
tp5614
a(F0.0078125
F0.8081534772182254
F7.0
tp5615
a(F0.0078125
F0.8105515587529976
F7.0
tp5616
a(F0.0078125
F0.8129496402877698
F7.0
tp5617
a(F0.0078125
F0.815347721822542
F7.0
tp5618
a(F0.0078125
F0.8177458033573142
F7.0
tp5619
a(F0.0078125
F0.8201438848920863
F7.0
tp5620
a(F0.0078125
F0.8225419664268585
F7.0
tp5621
a(F0.0078125
F0.8249400479616307
F7.0
tp5622
a(F0.0078125
F0.8273381294964028
F7.0
tp5623
a(F0.0078125
F0.829736211031175
F7.0
tp5624
a(F0.0078125
F0.8321342925659473
F7.0
tp5625
a(F0.008928571428571428
F0.8321342925659473
F8.0
tp5626
a(F0.008928571428571428
F0.8345323741007195
F8.0
tp5627
a(F0.010044642857142858
F0.8345323741007195
F9.0
tp5628
a(F0.010044642857142858
F0.8369304556354916
F9.0
tp5629
a(F0.010044642857142858
F0.8393285371702638
F9.0
tp5630
a(F0.011160714285714286
F0.8393285371702638
F10.0
tp5631
a(F0.011160714285714286
F0.841726618705036
F10.0
tp5632
a(F0.011160714285714286
F0.8441247002398081
F10.0
tp5633
a(F0.011160714285714286
F0.8465227817745803
F10.0
tp5634
a(F0.011160714285714286
F0.8489208633093526
F10.0
tp5635
a(F0.011160714285714286
F0.8513189448441247
F10.0
tp5636
a(F0.011160714285714286
F0.8537170263788969
F10.0
tp5637
a(F0.011160714285714286
F0.8561151079136691
F10.0
tp5638
a(F0.011160714285714286
F0.8585131894484412
F10.0
tp5639
a(F0.011160714285714286
F0.8609112709832134
F10.0
tp5640
a(F0.011160714285714286
F0.8633093525179856
F10.0
tp5641
a(F0.011160714285714286
F0.8657074340527577
F10.0
tp5642
a(F0.011160714285714286
F0.86810551558753
F10.0
tp5643
a(F0.011160714285714286
F0.8705035971223022
F10.0
tp5644
a(F0.011160714285714286
F0.8729016786570744
F10.0
tp5645
a(F0.011160714285714286
F0.8752997601918465
F10.0
tp5646
a(F0.011160714285714286
F0.8776978417266187
F10.0
tp5647
a(F0.011160714285714286
F0.8800959232613909
F10.0
tp5648
a(F0.011160714285714286
F0.882494004796163
F10.0
tp5649
a(F0.012276785714285714
F0.882494004796163
F11.0
tp5650
a(F0.012276785714285714
F0.8848920863309353
F11.0
tp5651
a(F0.013392857142857142
F0.8848920863309353
F12.0
tp5652
a(F0.013392857142857142
F0.8872901678657075
F12.0
tp5653
a(F0.013392857142857142
F0.8896882494004796
F12.0
tp5654
a(F0.013392857142857142
F0.8920863309352518
F12.0
tp5655
a(F0.013392857142857142
F0.894484412470024
F12.0
tp5656
a(F0.013392857142857142
F0.8968824940047961
F12.0
tp5657
a(F0.013392857142857142
F0.8992805755395683
F12.0
tp5658
a(F0.013392857142857142
F0.9016786570743405
F12.0
tp5659
a(F0.013392857142857142
F0.9040767386091128
F12.0
tp5660
a(F0.014508928571428572
F0.9040767386091128
F13.0
tp5661
a(F0.014508928571428572
F0.9064748201438849
F13.0
tp5662
a(F0.015625
F0.9064748201438849
F14.0
tp5663
a(F0.015625
F0.9088729016786571
F14.0
tp5664
a(F0.015625
F0.9112709832134293
F14.0
tp5665
a(F0.016741071428571428
F0.9112709832134293
F15.0
tp5666
a(F0.016741071428571428
F0.9136690647482014
F15.0
tp5667
a(F0.017857142857142856
F0.9136690647482014
F16.0
tp5668
a(F0.017857142857142856
F0.9160671462829736
F16.0
tp5669
a(F0.018973214285714284
F0.9160671462829736
F17.0
tp5670
a(F0.018973214285714284
F0.9184652278177458
F17.0
tp5671
a(F0.018973214285714284
F0.920863309352518
F17.0
tp5672
a(F0.020089285714285716
F0.920863309352518
F18.0
tp5673
a(F0.021205357142857144
F0.920863309352518
F19.0
tp5674
a(F0.021205357142857144
F0.9232613908872902
F19.0
tp5675
a(F0.022321428571428572
F0.9232613908872902
F20.0
tp5676
a(F0.022321428571428572
F0.9256594724220624
F20.0
tp5677
a(F0.0234375
F0.9256594724220624
F21.0
tp5678
a(F0.0234375
F0.9280575539568345
F21.0
tp5679
a(F0.0234375
F0.9304556354916067
F21.0
tp5680
a(F0.024553571428571428
F0.9304556354916067
F22.0
tp5681
a(F0.024553571428571428
F0.9328537170263789
F22.0
tp5682
a(F0.025669642857142856
F0.9328537170263789
F23.0
tp5683
a(F0.026785714285714284
F0.9328537170263789
F24.0
tp5684
a(F0.026785714285714284
F0.935251798561151
F24.0
tp5685
a(F0.026785714285714284
F0.9376498800959233
F24.0
tp5686
a(F0.027901785714285716
F0.9376498800959233
F25.0
tp5687
a(F0.029017857142857144
F0.9376498800959233
F26.0
tp5688
a(F0.029017857142857144
F0.9400479616306955
F26.0
tp5689
a(F0.029017857142857144
F0.9424460431654677
F26.0
tp5690
a(F0.030133928571428572
F0.9424460431654677
F27.0
tp5691
a(F0.030133928571428572
F0.9448441247002398
F27.0
tp5692
a(F0.030133928571428572
F0.947242206235012
F27.0
tp5693
a(F0.030133928571428572
F0.9496402877697842
F27.0
tp5694
a(F0.03125
F0.9496402877697842
F28.0
tp5695
a(F0.03236607142857143
F0.9496402877697842
F29.0
tp5696
a(F0.033482142857142856
F0.9496402877697842
F30.0
tp5697
a(F0.033482142857142856
F0.9520383693045563
F30.0
tp5698
a(F0.033482142857142856
F0.9544364508393285
F30.0
tp5699
a(F0.033482142857142856
F0.9568345323741008
F30.0
tp5700
a(F0.033482142857142856
F0.9592326139088729
F30.0
tp5701
a(F0.03459821428571429
F0.9592326139088729
F31.0
tp5702
a(F0.03571428571428571
F0.9592326139088729
F32.0
tp5703
a(F0.036830357142857144
F0.9592326139088729
F33.0
tp5704
a(F0.03794642857142857
F0.9592326139088729
F34.0
tp5705
a(F0.0390625
F0.9592326139088729
F35.0
tp5706
a(F0.04017857142857143
F0.9592326139088729
F36.0
tp5707
a(F0.041294642857142856
F0.9592326139088729
F37.0
tp5708
a(F0.04241071428571429
F0.9592326139088729
F38.0
tp5709
a(F0.04352678571428571
F0.9592326139088729
F39.0
tp5710
a(F0.044642857142857144
F0.9592326139088729
F40.0
tp5711
a(F0.04575892857142857
F0.9592326139088729
F41.0
tp5712
a(F0.046875
F0.9592326139088729
F42.0
tp5713
a(F0.04799107142857143
F0.9592326139088729
F43.0
tp5714
a(F0.049107142857142856
F0.9592326139088729
F44.0
tp5715
a(F0.049107142857142856
F0.9616306954436451
F44.0
tp5716
a(F0.05022321428571429
F0.9616306954436451
F45.0
tp5717
a(F0.05022321428571429
F0.9640287769784173
F45.0
tp5718
a(F0.05133928571428571
F0.9640287769784173
F46.0
tp5719
a(F0.052455357142857144
F0.9640287769784173
F47.0
tp5720
a(F0.05357142857142857
F0.9640287769784173
F48.0
tp5721
a(F0.0546875
F0.9640287769784173
F49.0
tp5722
a(F0.05580357142857143
F0.9640287769784173
F50.0
tp5723
a(F0.05580357142857143
F0.9664268585131894
F50.0
tp5724
a(F0.056919642857142856
F0.9664268585131894
F51.0
tp5725
a(F0.05803571428571429
F0.9664268585131894
F52.0
tp5726
a(F0.05915178571428571
F0.9664268585131894
F53.0
tp5727
a(F0.060267857142857144
F0.9664268585131894
F54.0
tp5728
a(F0.060267857142857144
F0.9688249400479616
F54.0
tp5729
a(F0.06138392857142857
F0.9688249400479616
F55.0
tp5730
a(F0.0625
F0.9688249400479616
F56.0
tp5731
a(F0.0625
F0.9712230215827338
F56.0
tp5732
a(F0.06361607142857142
F0.9712230215827338
F57.0
tp5733
a(F0.06473214285714286
F0.9712230215827338
F58.0
tp5734
a(F0.06584821428571429
F0.9712230215827338
F59.0
tp5735
a(F0.06696428571428571
F0.9712230215827338
F60.0
tp5736
a(F0.06808035714285714
F0.9712230215827338
F61.0
tp5737
a(F0.06919642857142858
F0.9712230215827338
F62.0
tp5738
a(F0.0703125
F0.9712230215827338
F63.0
tp5739
a(F0.07142857142857142
F0.9712230215827338
F64.0
tp5740
a(F0.07142857142857142
F0.973621103117506
F64.0
tp5741
a(F0.07254464285714286
F0.973621103117506
F65.0
tp5742
a(F0.07366071428571429
F0.973621103117506
F66.0
tp5743
a(F0.07477678571428571
F0.973621103117506
F67.0
tp5744
a(F0.07589285714285714
F0.973621103117506
F68.0
tp5745
a(F0.07700892857142858
F0.973621103117506
F69.0
tp5746
a(F0.078125
F0.973621103117506
F70.0
tp5747
a(F0.07924107142857142
F0.973621103117506
F71.0
tp5748
a(F0.08035714285714286
F0.973621103117506
F72.0
tp5749
a(F0.08147321428571429
F0.973621103117506
F73.0
tp5750
a(F0.08258928571428571
F0.973621103117506
F74.0
tp5751
a(F0.08370535714285714
F0.973621103117506
F75.0
tp5752
a(F0.08370535714285714
F0.9760191846522782
F75.0
tp5753
a(F0.08370535714285714
F0.9784172661870504
F75.0
tp5754
a(F0.08482142857142858
F0.9784172661870504
F76.0
tp5755
a(F0.0859375
F0.9784172661870504
F77.0
tp5756
a(F0.08705357142857142
F0.9784172661870504
F78.0
tp5757
a(F0.08816964285714286
F0.9784172661870504
F79.0
tp5758
a(F0.08928571428571429
F0.9784172661870504
F80.0
tp5759
a(F0.09040178571428571
F0.9784172661870504
F81.0
tp5760
a(F0.09151785714285714
F0.9784172661870504
F82.0
tp5761
a(F0.09263392857142858
F0.9784172661870504
F83.0
tp5762
a(F0.09375
F0.9784172661870504
F84.0
tp5763
a(F0.09375
F0.9808153477218226
F84.0
tp5764
a(F0.09486607142857142
F0.9808153477218226
F85.0
tp5765
a(F0.09598214285714286
F0.9808153477218226
F86.0
tp5766
a(F0.09709821428571429
F0.9808153477218226
F87.0
tp5767
a(F0.09821428571428571
F0.9808153477218226
F88.0
tp5768
a(F0.09933035714285714
F0.9808153477218226
F89.0
tp5769
a(F0.10044642857142858
F0.9808153477218226
F90.0
tp5770
a(F0.10044642857142858
F0.9832134292565947
F90.0
tp5771
a(F0.1015625
F0.9832134292565947
F91.0
tp5772
a(F0.10267857142857142
F0.9832134292565947
F92.0
tp5773
a(F0.10379464285714286
F0.9832134292565947
F93.0
tp5774
a(F0.10491071428571429
F0.9832134292565947
F94.0
tp5775
a(F0.10602678571428571
F0.9832134292565947
F95.0
tp5776
a(F0.10714285714285714
F0.9832134292565947
F96.0
tp5777
a(F0.10825892857142858
F0.9832134292565947
F97.0
tp5778
a(F0.109375
F0.9832134292565947
F98.0
tp5779
a(F0.11049107142857142
F0.9832134292565947
F99.0
tp5780
a(F0.11160714285714286
F0.9832134292565947
F100.0
tp5781
a(F0.11272321428571429
F0.9832134292565947
F101.0
tp5782
a(F0.11383928571428571
F0.9832134292565947
F102.0
tp5783
a(F0.11495535714285714
F0.9832134292565947
F103.0
tp5784
a(F0.11607142857142858
F0.9832134292565947
F104.0
tp5785
a(F0.1171875
F0.9832134292565947
F105.0
tp5786
a(F0.11830357142857142
F0.9832134292565947
F106.0
tp5787
a(F0.11941964285714286
F0.9832134292565947
F107.0
tp5788
a(F0.12053571428571429
F0.9832134292565947
F108.0
tp5789
a(F0.12165178571428571
F0.9832134292565947
F109.0
tp5790
a(F0.12276785714285714
F0.9832134292565947
F110.0
tp5791
a(F0.12388392857142858
F0.9832134292565947
F111.0
tp5792
a(F0.125
F0.9832134292565947
F112.0
tp5793
a(F0.12611607142857142
F0.9832134292565947
F113.0
tp5794
a(F0.12723214285714285
F0.9832134292565947
F114.0
tp5795
a(F0.12834821428571427
F0.9832134292565947
F115.0
tp5796
a(F0.12946428571428573
F0.9832134292565947
F116.0
tp5797
a(F0.13058035714285715
F0.9832134292565947
F117.0
tp5798
a(F0.13169642857142858
F0.9832134292565947
F118.0
tp5799
a(F0.1328125
F0.9832134292565947
F119.0
tp5800
a(F0.13392857142857142
F0.9832134292565947
F120.0
tp5801
a(F0.13504464285714285
F0.9832134292565947
F121.0
tp5802
a(F0.13616071428571427
F0.9832134292565947
F122.0
tp5803
a(F0.13727678571428573
F0.9832134292565947
F123.0
tp5804
a(F0.13727678571428573
F0.9856115107913669
F123.0
tp5805
a(F0.13839285714285715
F0.9856115107913669
F124.0
tp5806
a(F0.13950892857142858
F0.9856115107913669
F125.0
tp5807
a(F0.140625
F0.9856115107913669
F126.0
tp5808
a(F0.14174107142857142
F0.9856115107913669
F127.0
tp5809
a(F0.14285714285714285
F0.9856115107913669
F128.0
tp5810
a(F0.14397321428571427
F0.9856115107913669
F129.0
tp5811
a(F0.14508928571428573
F0.9856115107913669
F130.0
tp5812
a(F0.14620535714285715
F0.9856115107913669
F131.0
tp5813
a(F0.14732142857142858
F0.9856115107913669
F132.0
tp5814
a(F0.1484375
F0.9856115107913669
F133.0
tp5815
a(F0.14955357142857142
F0.9856115107913669
F134.0
tp5816
a(F0.15066964285714285
F0.9856115107913669
F135.0
tp5817
a(F0.15178571428571427
F0.9856115107913669
F136.0
tp5818
a(F0.15290178571428573
F0.9856115107913669
F137.0
tp5819
a(F0.15401785714285715
F0.9856115107913669
F138.0
tp5820
a(F0.15513392857142858
F0.9856115107913669
F139.0
tp5821
a(F0.15625
F0.9856115107913669
F140.0
tp5822
a(F0.15736607142857142
F0.9856115107913669
F141.0
tp5823
a(F0.15848214285714285
F0.9856115107913669
F142.0
tp5824
a(F0.15959821428571427
F0.9856115107913669
F143.0
tp5825
a(F0.16071428571428573
F0.9856115107913669
F144.0
tp5826
a(F0.16183035714285715
F0.9856115107913669
F145.0
tp5827
a(F0.16183035714285715
F0.988009592326139
F145.0
tp5828
a(F0.16183035714285715
F0.9904076738609112
F145.0
tp5829
a(F0.16294642857142858
F0.9904076738609112
F146.0
tp5830
a(F0.1640625
F0.9904076738609112
F147.0
tp5831
a(F0.16517857142857142
F0.9904076738609112
F148.0
tp5832
a(F0.16629464285714285
F0.9904076738609112
F149.0
tp5833
a(F0.16741071428571427
F0.9904076738609112
F150.0
tp5834
a(F0.16852678571428573
F0.9904076738609112
F151.0
tp5835
a(F0.16964285714285715
F0.9904076738609112
F152.0
tp5836
a(F0.17075892857142858
F0.9904076738609112
F153.0
tp5837
a(F0.171875
F0.9904076738609112
F154.0
tp5838
a(F0.17299107142857142
F0.9904076738609112
F155.0
tp5839
a(F0.17410714285714285
F0.9904076738609112
F156.0
tp5840
a(F0.17522321428571427
F0.9904076738609112
F157.0
tp5841
a(F0.17633928571428573
F0.9904076738609112
F158.0
tp5842
a(F0.17745535714285715
F0.9904076738609112
F159.0
tp5843
a(F0.17857142857142858
F0.9904076738609112
F160.0
tp5844
a(F0.1796875
F0.9904076738609112
F161.0
tp5845
a(F0.18080357142857142
F0.9904076738609112
F162.0
tp5846
a(F0.18191964285714285
F0.9904076738609112
F163.0
tp5847
a(F0.18303571428571427
F0.9904076738609112
F164.0
tp5848
a(F0.18415178571428573
F0.9904076738609112
F165.0
tp5849
a(F0.18526785714285715
F0.9904076738609112
F166.0
tp5850
a(F0.18638392857142858
F0.9904076738609112
F167.0
tp5851
a(F0.1875
F0.9904076738609112
F168.0
tp5852
a(F0.18861607142857142
F0.9904076738609112
F169.0
tp5853
a(F0.18973214285714285
F0.9904076738609112
F170.0
tp5854
a(F0.19084821428571427
F0.9904076738609112
F171.0
tp5855
a(F0.19196428571428573
F0.9904076738609112
F172.0
tp5856
a(F0.19308035714285715
F0.9904076738609112
F173.0
tp5857
a(F0.19419642857142858
F0.9904076738609112
F174.0
tp5858
a(F0.1953125
F0.9904076738609112
F175.0
tp5859
a(F0.19642857142857142
F0.9904076738609112
F176.0
tp5860
a(F0.19754464285714285
F0.9904076738609112
F177.0
tp5861
a(F0.19866071428571427
F0.9904076738609112
F178.0
tp5862
a(F0.19977678571428573
F0.9904076738609112
F179.0
tp5863
a(F0.20089285714285715
F0.9904076738609112
F180.0
tp5864
a(F0.20200892857142858
F0.9904076738609112
F181.0
tp5865
a(F0.203125
F0.9904076738609112
F182.0
tp5866
a(F0.20424107142857142
F0.9904076738609112
F183.0
tp5867
a(F0.20424107142857142
F0.9928057553956835
F183.0
tp5868
a(F0.20535714285714285
F0.9928057553956835
F184.0
tp5869
a(F0.20647321428571427
F0.9928057553956835
F185.0
tp5870
a(F0.20758928571428573
F0.9928057553956835
F186.0
tp5871
a(F0.20870535714285715
F0.9928057553956835
F187.0
tp5872
a(F0.20982142857142858
F0.9928057553956835
F188.0
tp5873
a(F0.2109375
F0.9928057553956835
F189.0
tp5874
a(F0.21205357142857142
F0.9928057553956835
F190.0
tp5875
a(F0.21316964285714285
F0.9928057553956835
F191.0
tp5876
a(F0.21428571428571427
F0.9928057553956835
F192.0
tp5877
a(F0.21540178571428573
F0.9928057553956835
F193.0
tp5878
a(F0.21651785714285715
F0.9928057553956835
F194.0
tp5879
a(F0.21763392857142858
F0.9928057553956835
F195.0
tp5880
a(F0.21875
F0.9928057553956835
F196.0
tp5881
a(F0.21986607142857142
F0.9928057553956835
F197.0
tp5882
a(F0.22098214285714285
F0.9928057553956835
F198.0
tp5883
a(F0.22209821428571427
F0.9928057553956835
F199.0
tp5884
a(F0.22321428571428573
F0.9928057553956835
F200.0
tp5885
a(F0.22433035714285715
F0.9928057553956835
F201.0
tp5886
a(F0.22544642857142858
F0.9928057553956835
F202.0
tp5887
a(F0.2265625
F0.9928057553956835
F203.0
tp5888
a(F0.22767857142857142
F0.9928057553956835
F204.0
tp5889
a(F0.22879464285714285
F0.9928057553956835
F205.0
tp5890
a(F0.22991071428571427
F0.9928057553956835
F206.0
tp5891
a(F0.23102678571428573
F0.9928057553956835
F207.0
tp5892
a(F0.23214285714285715
F0.9928057553956835
F208.0
tp5893
a(F0.23325892857142858
F0.9928057553956835
F209.0
tp5894
a(F0.234375
F0.9928057553956835
F210.0
tp5895
a(F0.23549107142857142
F0.9928057553956835
F211.0
tp5896
a(F0.23660714285714285
F0.9928057553956835
F212.0
tp5897
a(F0.23772321428571427
F0.9928057553956835
F213.0
tp5898
a(F0.23883928571428573
F0.9928057553956835
F214.0
tp5899
a(F0.23995535714285715
F0.9928057553956835
F215.0
tp5900
a(F0.24107142857142858
F0.9928057553956835
F216.0
tp5901
a(F0.2421875
F0.9928057553956835
F217.0
tp5902
a(F0.24330357142857142
F0.9928057553956835
F218.0
tp5903
a(F0.24441964285714285
F0.9928057553956835
F219.0
tp5904
a(F0.24553571428571427
F0.9928057553956835
F220.0
tp5905
a(F0.24665178571428573
F0.9928057553956835
F221.0
tp5906
a(F0.24776785714285715
F0.9928057553956835
F222.0
tp5907
a(F0.24888392857142858
F0.9928057553956835
F223.0
tp5908
a(F0.25
F0.9928057553956835
F224.0
tp5909
a(F0.25111607142857145
F0.9928057553956835
F225.0
tp5910
a(F0.25223214285714285
F0.9928057553956835
F226.0
tp5911
a(F0.2533482142857143
F0.9928057553956835
F227.0
tp5912
a(F0.2544642857142857
F0.9928057553956835
F228.0
tp5913
a(F0.25558035714285715
F0.9928057553956835
F229.0
tp5914
a(F0.25669642857142855
F0.9928057553956835
F230.0
tp5915
a(F0.2578125
F0.9928057553956835
F231.0
tp5916
a(F0.25892857142857145
F0.9928057553956835
F232.0
tp5917
a(F0.25892857142857145
F0.9952038369304557
F232.0
tp5918
a(F0.26004464285714285
F0.9952038369304557
F233.0
tp5919
a(F0.2611607142857143
F0.9952038369304557
F234.0
tp5920
a(F0.2622767857142857
F0.9952038369304557
F235.0
tp5921
a(F0.26339285714285715
F0.9952038369304557
F236.0
tp5922
a(F0.26450892857142855
F0.9952038369304557
F237.0
tp5923
a(F0.265625
F0.9952038369304557
F238.0
tp5924
a(F0.26674107142857145
F0.9952038369304557
F239.0
tp5925
a(F0.26785714285714285
F0.9952038369304557
F240.0
tp5926
a(F0.2689732142857143
F0.9952038369304557
F241.0
tp5927
a(F0.2700892857142857
F0.9952038369304557
F242.0
tp5928
a(F0.27120535714285715
F0.9952038369304557
F243.0
tp5929
a(F0.27232142857142855
F0.9952038369304557
F244.0
tp5930
a(F0.2734375
F0.9952038369304557
F245.0
tp5931
a(F0.27455357142857145
F0.9952038369304557
F246.0
tp5932
a(F0.27566964285714285
F0.9952038369304557
F247.0
tp5933
a(F0.2767857142857143
F0.9952038369304557
F248.0
tp5934
a(F0.2779017857142857
F0.9952038369304557
F249.0
tp5935
a(F0.27901785714285715
F0.9952038369304557
F250.0
tp5936
a(F0.28013392857142855
F0.9952038369304557
F251.0
tp5937
a(F0.28125
F0.9952038369304557
F252.0
tp5938
a(F0.28236607142857145
F0.9952038369304557
F253.0
tp5939
a(F0.28348214285714285
F0.9952038369304557
F254.0
tp5940
a(F0.2845982142857143
F0.9952038369304557
F255.0
tp5941
a(F0.2857142857142857
F0.9952038369304557
F256.0
tp5942
a(F0.28683035714285715
F0.9952038369304557
F257.0
tp5943
a(F0.28794642857142855
F0.9952038369304557
F258.0
tp5944
a(F0.2890625
F0.9952038369304557
F259.0
tp5945
a(F0.29017857142857145
F0.9952038369304557
F260.0
tp5946
a(F0.29129464285714285
F0.9952038369304557
F261.0
tp5947
a(F0.2924107142857143
F0.9952038369304557
F262.0
tp5948
a(F0.2935267857142857
F0.9952038369304557
F263.0
tp5949
a(F0.29464285714285715
F0.9952038369304557
F264.0
tp5950
a(F0.29575892857142855
F0.9952038369304557
F265.0
tp5951
a(F0.296875
F0.9952038369304557
F266.0
tp5952
a(F0.29799107142857145
F0.9952038369304557
F267.0
tp5953
a(F0.29910714285714285
F0.9952038369304557
F268.0
tp5954
a(F0.3002232142857143
F0.9952038369304557
F269.0
tp5955
a(F0.3013392857142857
F0.9952038369304557
F270.0
tp5956
a(F0.30245535714285715
F0.9952038369304557
F271.0
tp5957
a(F0.30357142857142855
F0.9952038369304557
F272.0
tp5958
a(F0.3046875
F0.9952038369304557
F273.0
tp5959
a(F0.30580357142857145
F0.9952038369304557
F274.0
tp5960
a(F0.30691964285714285
F0.9952038369304557
F275.0
tp5961
a(F0.3080357142857143
F0.9952038369304557
F276.0
tp5962
a(F0.3091517857142857
F0.9952038369304557
F277.0
tp5963
a(F0.31026785714285715
F0.9952038369304557
F278.0
tp5964
a(F0.31138392857142855
F0.9952038369304557
F279.0
tp5965
a(F0.3125
F0.9952038369304557
F280.0
tp5966
a(F0.31361607142857145
F0.9952038369304557
F281.0
tp5967
a(F0.31473214285714285
F0.9952038369304557
F282.0
tp5968
a(F0.3158482142857143
F0.9952038369304557
F283.0
tp5969
a(F0.3169642857142857
F0.9952038369304557
F284.0
tp5970
a(F0.31808035714285715
F0.9952038369304557
F285.0
tp5971
a(F0.31919642857142855
F0.9952038369304557
F286.0
tp5972
a(F0.3203125
F0.9952038369304557
F287.0
tp5973
a(F0.32142857142857145
F0.9952038369304557
F288.0
tp5974
a(F0.32254464285714285
F0.9952038369304557
F289.0
tp5975
a(F0.3236607142857143
F0.9952038369304557
F290.0
tp5976
a(F0.3247767857142857
F0.9952038369304557
F291.0
tp5977
a(F0.32589285714285715
F0.9952038369304557
F292.0
tp5978
a(F0.32700892857142855
F0.9952038369304557
F293.0
tp5979
a(F0.328125
F0.9952038369304557
F294.0
tp5980
a(F0.32924107142857145
F0.9952038369304557
F295.0
tp5981
a(F0.33035714285714285
F0.9952038369304557
F296.0
tp5982
a(F0.3314732142857143
F0.9952038369304557
F297.0
tp5983
a(F0.3325892857142857
F0.9952038369304557
F298.0
tp5984
a(F0.33370535714285715
F0.9952038369304557
F299.0
tp5985
a(F0.33482142857142855
F0.9952038369304557
F300.0
tp5986
a(F0.3359375
F0.9952038369304557
F301.0
tp5987
a(F0.33705357142857145
F0.9952038369304557
F302.0
tp5988
a(F0.33816964285714285
F0.9952038369304557
F303.0
tp5989
a(F0.3392857142857143
F0.9952038369304557
F304.0
tp5990
a(F0.3404017857142857
F0.9952038369304557
F305.0
tp5991
a(F0.34151785714285715
F0.9952038369304557
F306.0
tp5992
a(F0.34263392857142855
F0.9952038369304557
F307.0
tp5993
a(F0.34375
F0.9952038369304557
F308.0
tp5994
a(F0.34486607142857145
F0.9952038369304557
F309.0
tp5995
a(F0.34598214285714285
F0.9952038369304557
F310.0
tp5996
a(F0.3470982142857143
F0.9952038369304557
F311.0
tp5997
a(F0.3482142857142857
F0.9952038369304557
F312.0
tp5998
a(F0.34933035714285715
F0.9952038369304557
F313.0
tp5999
a(F0.35044642857142855
F0.9952038369304557
F314.0
tp6000
a(F0.3515625
F0.9952038369304557
F315.0
tp6001
a(F0.35267857142857145
F0.9952038369304557
F316.0
tp6002
a(F0.35379464285714285
F0.9952038369304557
F317.0
tp6003
a(F0.3549107142857143
F0.9952038369304557
F318.0
tp6004
a(F0.3560267857142857
F0.9952038369304557
F319.0
tp6005
a(F0.35714285714285715
F0.9952038369304557
F320.0
tp6006
a(F0.35825892857142855
F0.9952038369304557
F321.0
tp6007
a(F0.359375
F0.9952038369304557
F322.0
tp6008
a(F0.36049107142857145
F0.9952038369304557
F323.0
tp6009
a(F0.36160714285714285
F0.9952038369304557
F324.0
tp6010
a(F0.3627232142857143
F0.9952038369304557
F325.0
tp6011
a(F0.3638392857142857
F0.9952038369304557
F326.0
tp6012
a(F0.36495535714285715
F0.9952038369304557
F327.0
tp6013
a(F0.36607142857142855
F0.9952038369304557
F328.0
tp6014
a(F0.3671875
F0.9952038369304557
F329.0
tp6015
a(F0.36830357142857145
F0.9952038369304557
F330.0
tp6016
a(F0.36941964285714285
F0.9952038369304557
F331.0
tp6017
a(F0.3705357142857143
F0.9952038369304557
F332.0
tp6018
a(F0.3716517857142857
F0.9952038369304557
F333.0
tp6019
a(F0.37276785714285715
F0.9952038369304557
F334.0
tp6020
a(F0.37388392857142855
F0.9952038369304557
F335.0
tp6021
a(F0.375
F0.9952038369304557
F336.0
tp6022
a(F0.37611607142857145
F0.9952038369304557
F337.0
tp6023
a(F0.37723214285714285
F0.9952038369304557
F338.0
tp6024
a(F0.3783482142857143
F0.9952038369304557
F339.0
tp6025
a(F0.3794642857142857
F0.9952038369304557
F340.0
tp6026
a(F0.38058035714285715
F0.9952038369304557
F341.0
tp6027
a(F0.38169642857142855
F0.9952038369304557
F342.0
tp6028
a(F0.3828125
F0.9952038369304557
F343.0
tp6029
a(F0.38392857142857145
F0.9952038369304557
F344.0
tp6030
a(F0.38504464285714285
F0.9952038369304557
F345.0
tp6031
a(F0.3861607142857143
F0.9952038369304557
F346.0
tp6032
a(F0.3872767857142857
F0.9952038369304557
F347.0
tp6033
a(F0.38839285714285715
F0.9952038369304557
F348.0
tp6034
a(F0.38950892857142855
F0.9952038369304557
F349.0
tp6035
a(F0.390625
F0.9952038369304557
F350.0
tp6036
a(F0.39174107142857145
F0.9952038369304557
F351.0
tp6037
a(F0.39285714285714285
F0.9952038369304557
F352.0
tp6038
a(F0.3939732142857143
F0.9952038369304557
F353.0
tp6039
a(F0.3950892857142857
F0.9952038369304557
F354.0
tp6040
a(F0.39620535714285715
F0.9952038369304557
F355.0
tp6041
a(F0.39732142857142855
F0.9952038369304557
F356.0
tp6042
a(F0.3984375
F0.9952038369304557
F357.0
tp6043
a(F0.39955357142857145
F0.9952038369304557
F358.0
tp6044
a(F0.40066964285714285
F0.9952038369304557
F359.0
tp6045
a(F0.4017857142857143
F0.9952038369304557
F360.0
tp6046
a(F0.4029017857142857
F0.9952038369304557
F361.0
tp6047
a(F0.40401785714285715
F0.9952038369304557
F362.0
tp6048
a(F0.40513392857142855
F0.9952038369304557
F363.0
tp6049
a(F0.40625
F0.9952038369304557
F364.0
tp6050
a(F0.40736607142857145
F0.9952038369304557
F365.0
tp6051
a(F0.40848214285714285
F0.9952038369304557
F366.0
tp6052
a(F0.4095982142857143
F0.9952038369304557
F367.0
tp6053
a(F0.4107142857142857
F0.9952038369304557
F368.0
tp6054
a(F0.41183035714285715
F0.9952038369304557
F369.0
tp6055
a(F0.41294642857142855
F0.9952038369304557
F370.0
tp6056
a(F0.4140625
F0.9952038369304557
F371.0
tp6057
a(F0.41517857142857145
F0.9952038369304557
F372.0
tp6058
a(F0.41629464285714285
F0.9952038369304557
F373.0
tp6059
a(F0.4174107142857143
F0.9952038369304557
F374.0
tp6060
a(F0.4185267857142857
F0.9952038369304557
F375.0
tp6061
a(F0.41964285714285715
F0.9952038369304557
F376.0
tp6062
a(F0.42075892857142855
F0.9952038369304557
F377.0
tp6063
a(F0.421875
F0.9952038369304557
F378.0
tp6064
a(F0.42299107142857145
F0.9952038369304557
F379.0
tp6065
a(F0.42410714285714285
F0.9952038369304557
F380.0
tp6066
a(F0.4252232142857143
F0.9952038369304557
F381.0
tp6067
a(F0.4263392857142857
F0.9952038369304557
F382.0
tp6068
a(F0.42745535714285715
F0.9952038369304557
F383.0
tp6069
a(F0.42857142857142855
F0.9952038369304557
F384.0
tp6070
a(F0.4296875
F0.9952038369304557
F385.0
tp6071
a(F0.43080357142857145
F0.9952038369304557
F386.0
tp6072
a(F0.43191964285714285
F0.9952038369304557
F387.0
tp6073
a(F0.4330357142857143
F0.9952038369304557
F388.0
tp6074
a(F0.4341517857142857
F0.9952038369304557
F389.0
tp6075
a(F0.43526785714285715
F0.9952038369304557
F390.0
tp6076
a(F0.43638392857142855
F0.9952038369304557
F391.0
tp6077
a(F0.4375
F0.9952038369304557
F392.0
tp6078
a(F0.43861607142857145
F0.9952038369304557
F393.0
tp6079
a(F0.43973214285714285
F0.9952038369304557
F394.0
tp6080
a(F0.4408482142857143
F0.9952038369304557
F395.0
tp6081
a(F0.4419642857142857
F0.9952038369304557
F396.0
tp6082
a(F0.44308035714285715
F0.9952038369304557
F397.0
tp6083
a(F0.44419642857142855
F0.9952038369304557
F398.0
tp6084
a(F0.4453125
F0.9952038369304557
F399.0
tp6085
a(F0.44642857142857145
F0.9952038369304557
F400.0
tp6086
a(F0.44754464285714285
F0.9952038369304557
F401.0
tp6087
a(F0.4486607142857143
F0.9952038369304557
F402.0
tp6088
a(F0.4497767857142857
F0.9952038369304557
F403.0
tp6089
a(F0.45089285714285715
F0.9952038369304557
F404.0
tp6090
a(F0.45200892857142855
F0.9952038369304557
F405.0
tp6091
a(F0.453125
F0.9952038369304557
F406.0
tp6092
a(F0.45424107142857145
F0.9952038369304557
F407.0
tp6093
a(F0.45535714285714285
F0.9952038369304557
F408.0
tp6094
a(F0.4564732142857143
F0.9952038369304557
F409.0
tp6095
a(F0.4575892857142857
F0.9952038369304557
F410.0
tp6096
a(F0.45870535714285715
F0.9952038369304557
F411.0
tp6097
a(F0.45982142857142855
F0.9952038369304557
F412.0
tp6098
a(F0.4609375
F0.9952038369304557
F413.0
tp6099
a(F0.46205357142857145
F0.9952038369304557
F414.0
tp6100
a(F0.46316964285714285
F0.9952038369304557
F415.0
tp6101
a(F0.4642857142857143
F0.9952038369304557
F416.0
tp6102
a(F0.4654017857142857
F0.9952038369304557
F417.0
tp6103
a(F0.46651785714285715
F0.9952038369304557
F418.0
tp6104
a(F0.46763392857142855
F0.9952038369304557
F419.0
tp6105
a(F0.46875
F0.9952038369304557
F420.0
tp6106
a(F0.46986607142857145
F0.9952038369304557
F421.0
tp6107
a(F0.47098214285714285
F0.9952038369304557
F422.0
tp6108
a(F0.4720982142857143
F0.9952038369304557
F423.0
tp6109
a(F0.4732142857142857
F0.9952038369304557
F424.0
tp6110
a(F0.47433035714285715
F0.9952038369304557
F425.0
tp6111
a(F0.47544642857142855
F0.9952038369304557
F426.0
tp6112
a(F0.4765625
F0.9952038369304557
F427.0
tp6113
a(F0.47767857142857145
F0.9952038369304557
F428.0
tp6114
a(F0.47879464285714285
F0.9952038369304557
F429.0
tp6115
a(F0.4799107142857143
F0.9952038369304557
F430.0
tp6116
a(F0.4810267857142857
F0.9952038369304557
F431.0
tp6117
a(F0.48214285714285715
F0.9952038369304557
F432.0
tp6118
a(F0.48325892857142855
F0.9952038369304557
F433.0
tp6119
a(F0.484375
F0.9952038369304557
F434.0
tp6120
a(F0.48549107142857145
F0.9952038369304557
F435.0
tp6121
a(F0.48660714285714285
F0.9952038369304557
F436.0
tp6122
a(F0.4877232142857143
F0.9952038369304557
F437.0
tp6123
a(F0.4888392857142857
F0.9952038369304557
F438.0
tp6124
a(F0.48995535714285715
F0.9952038369304557
F439.0
tp6125
a(F0.49107142857142855
F0.9952038369304557
F440.0
tp6126
a(F0.4921875
F0.9952038369304557
F441.0
tp6127
a(F0.49330357142857145
F0.9952038369304557
F442.0
tp6128
a(F0.49441964285714285
F0.9952038369304557
F443.0
tp6129
a(F0.4955357142857143
F0.9952038369304557
F444.0
tp6130
a(F0.4966517857142857
F0.9952038369304557
F445.0
tp6131
a(F0.49776785714285715
F0.9952038369304557
F446.0
tp6132
a(F0.49888392857142855
F0.9952038369304557
F447.0
tp6133
a(F0.5
F0.9952038369304557
F448.0
tp6134
a(F0.5011160714285714
F0.9952038369304557
F449.0
tp6135
a(F0.5022321428571429
F0.9952038369304557
F450.0
tp6136
a(F0.5033482142857143
F0.9952038369304557
F451.0
tp6137
a(F0.5044642857142857
F0.9952038369304557
F452.0
tp6138
a(F0.5044642857142857
F0.9976019184652278
F452.0
tp6139
a(F0.5055803571428571
F0.9976019184652278
F453.0
tp6140
a(F0.5066964285714286
F0.9976019184652278
F454.0
tp6141
a(F0.5078125
F0.9976019184652278
F455.0
tp6142
a(F0.5089285714285714
F0.9976019184652278
F456.0
tp6143
a(F0.5100446428571429
F0.9976019184652278
F457.0
tp6144
a(F0.5111607142857143
F0.9976019184652278
F458.0
tp6145
a(F0.5122767857142857
F0.9976019184652278
F459.0
tp6146
a(F0.5133928571428571
F0.9976019184652278
F460.0
tp6147
a(F0.5145089285714286
F0.9976019184652278
F461.0
tp6148
a(F0.515625
F0.9976019184652278
F462.0
tp6149
a(F0.5167410714285714
F0.9976019184652278
F463.0
tp6150
a(F0.5178571428571429
F0.9976019184652278
F464.0
tp6151
a(F0.5189732142857143
F0.9976019184652278
F465.0
tp6152
a(F0.5200892857142857
F0.9976019184652278
F466.0
tp6153
a(F0.5212053571428571
F0.9976019184652278
F467.0
tp6154
a(F0.5223214285714286
F0.9976019184652278
F468.0
tp6155
a(F0.5234375
F0.9976019184652278
F469.0
tp6156
a(F0.5245535714285714
F0.9976019184652278
F470.0
tp6157
a(F0.5256696428571429
F0.9976019184652278
F471.0
tp6158
a(F0.5267857142857143
F0.9976019184652278
F472.0
tp6159
a(F0.5279017857142857
F0.9976019184652278
F473.0
tp6160
a(F0.5290178571428571
F0.9976019184652278
F474.0
tp6161
a(F0.5301339285714286
F0.9976019184652278
F475.0
tp6162
a(F0.53125
F0.9976019184652278
F476.0
tp6163
a(F0.5323660714285714
F0.9976019184652278
F477.0
tp6164
a(F0.5334821428571429
F0.9976019184652278
F478.0
tp6165
a(F0.5345982142857143
F0.9976019184652278
F479.0
tp6166
a(F0.5357142857142857
F0.9976019184652278
F480.0
tp6167
a(F0.5368303571428571
F0.9976019184652278
F481.0
tp6168
a(F0.5379464285714286
F0.9976019184652278
F482.0
tp6169
a(F0.5390625
F0.9976019184652278
F483.0
tp6170
a(F0.5401785714285714
F0.9976019184652278
F484.0
tp6171
a(F0.5412946428571429
F0.9976019184652278
F485.0
tp6172
a(F0.5424107142857143
F0.9976019184652278
F486.0
tp6173
a(F0.5435267857142857
F0.9976019184652278
F487.0
tp6174
a(F0.5446428571428571
F0.9976019184652278
F488.0
tp6175
a(F0.5457589285714286
F0.9976019184652278
F489.0
tp6176
a(F0.546875
F0.9976019184652278
F490.0
tp6177
a(F0.5479910714285714
F0.9976019184652278
F491.0
tp6178
a(F0.5491071428571429
F0.9976019184652278
F492.0
tp6179
a(F0.5502232142857143
F0.9976019184652278
F493.0
tp6180
a(F0.5513392857142857
F0.9976019184652278
F494.0
tp6181
a(F0.5524553571428571
F0.9976019184652278
F495.0
tp6182
a(F0.5535714285714286
F0.9976019184652278
F496.0
tp6183
a(F0.5546875
F0.9976019184652278
F497.0
tp6184
a(F0.5558035714285714
F0.9976019184652278
F498.0
tp6185
a(F0.5569196428571429
F0.9976019184652278
F499.0
tp6186
a(F0.5580357142857143
F0.9976019184652278
F500.0
tp6187
a(F0.5580357142857143
F1.0
F500.0
tp6188
a(F0.5591517857142857
F1.0
F501.0
tp6189
a(F0.5602678571428571
F1.0
F502.0
tp6190
a(F0.5613839285714286
F1.0
F503.0
tp6191
a(F0.5625
F1.0
F504.0
tp6192
a(F0.5636160714285714
F1.0
F505.0
tp6193
a(F0.5647321428571429
F1.0
F506.0
tp6194
a(F0.5658482142857143
F1.0
F507.0
tp6195
a(F0.5669642857142857
F1.0
F508.0
tp6196
a(F0.5680803571428571
F1.0
F509.0
tp6197
a(F0.5691964285714286
F1.0
F510.0
tp6198
a(F0.5703125
F1.0
F511.0
tp6199
a(F0.5714285714285714
F1.0
F512.0
tp6200
a(F0.5725446428571429
F1.0
F513.0
tp6201
a(F0.5736607142857143
F1.0
F514.0
tp6202
a(F0.5747767857142857
F1.0
F515.0
tp6203
a(F0.5758928571428571
F1.0
F516.0
tp6204
a(F0.5770089285714286
F1.0
F517.0
tp6205
a(F0.578125
F1.0
F518.0
tp6206
a(F0.5792410714285714
F1.0
F519.0
tp6207
a(F0.5803571428571429
F1.0
F520.0
tp6208
a(F0.5814732142857143
F1.0
F521.0
tp6209
a(F0.5825892857142857
F1.0
F522.0
tp6210
a(F0.5837053571428571
F1.0
F523.0
tp6211
a(F0.5848214285714286
F1.0
F524.0
tp6212
a(F0.5859375
F1.0
F525.0
tp6213
a(F0.5870535714285714
F1.0
F526.0
tp6214
a(F0.5881696428571429
F1.0
F527.0
tp6215
a(F0.5892857142857143
F1.0
F528.0
tp6216
a(F0.5904017857142857
F1.0
F529.0
tp6217
a(F0.5915178571428571
F1.0
F530.0
tp6218
a(F0.5926339285714286
F1.0
F531.0
tp6219
a(F0.59375
F1.0
F532.0
tp6220
a(F0.5948660714285714
F1.0
F533.0
tp6221
a(F0.5959821428571429
F1.0
F534.0
tp6222
a(F0.5970982142857143
F1.0
F535.0
tp6223
a(F0.5982142857142857
F1.0
F536.0
tp6224
a(F0.5993303571428571
F1.0
F537.0
tp6225
a(F0.6004464285714286
F1.0
F538.0
tp6226
a(F0.6015625
F1.0
F539.0
tp6227
a(F0.6026785714285714
F1.0
F540.0
tp6228
a(F0.6037946428571429
F1.0
F541.0
tp6229
a(F0.6049107142857143
F1.0
F542.0
tp6230
a(F0.6060267857142857
F1.0
F543.0
tp6231
a(F0.6071428571428571
F1.0
F544.0
tp6232
a(F0.6082589285714286
F1.0
F545.0
tp6233
a(F0.609375
F1.0
F546.0
tp6234
a(F0.6104910714285714
F1.0
F547.0
tp6235
a(F0.6116071428571429
F1.0
F548.0
tp6236
a(F0.6127232142857143
F1.0
F549.0
tp6237
a(F0.6138392857142857
F1.0
F550.0
tp6238
a(F0.6149553571428571
F1.0
F551.0
tp6239
a(F0.6160714285714286
F1.0
F552.0
tp6240
a(F0.6171875
F1.0
F553.0
tp6241
a(F0.6183035714285714
F1.0
F554.0
tp6242
a(F0.6194196428571429
F1.0
F555.0
tp6243
a(F0.6205357142857143
F1.0
F556.0
tp6244
a(F0.6216517857142857
F1.0
F557.0
tp6245
a(F0.6227678571428571
F1.0
F558.0
tp6246
a(F0.6238839285714286
F1.0
F559.0
tp6247
a(F0.625
F1.0
F560.0
tp6248
a(F0.6261160714285714
F1.0
F561.0
tp6249
a(F0.6272321428571429
F1.0
F562.0
tp6250
a(F0.6283482142857143
F1.0
F563.0
tp6251
a(F0.6294642857142857
F1.0
F564.0
tp6252
a(F0.6305803571428571
F1.0
F565.0
tp6253
a(F0.6316964285714286
F1.0
F566.0
tp6254
a(F0.6328125
F1.0
F567.0
tp6255
a(F0.6339285714285714
F1.0
F568.0
tp6256
a(F0.6350446428571429
F1.0
F569.0
tp6257
a(F0.6361607142857143
F1.0
F570.0
tp6258
a(F0.6372767857142857
F1.0
F571.0
tp6259
a(F0.6383928571428571
F1.0
F572.0
tp6260
a(F0.6395089285714286
F1.0
F573.0
tp6261
a(F0.640625
F1.0
F574.0
tp6262
a(F0.6417410714285714
F1.0
F575.0
tp6263
a(F0.6428571428571429
F1.0
F576.0
tp6264
a(F0.6439732142857143
F1.0
F577.0
tp6265
a(F0.6450892857142857
F1.0
F578.0
tp6266
a(F0.6462053571428571
F1.0
F579.0
tp6267
a(F0.6473214285714286
F1.0
F580.0
tp6268
a(F0.6484375
F1.0
F581.0
tp6269
a(F0.6506696428571429
F1.0
F583.0
tp6270
a(F0.6517857142857143
F1.0
F584.0
tp6271
a(F0.6529017857142857
F1.0
F585.0
tp6272
a(F0.6540178571428571
F1.0
F586.0
tp6273
a(F0.6551339285714286
F1.0
F587.0
tp6274
a(F0.65625
F1.0
F588.0
tp6275
a(F0.6573660714285714
F1.0
F589.0
tp6276
a(F0.6584821428571429
F1.0
F590.0
tp6277
a(F0.6595982142857143
F1.0
F591.0
tp6278
a(F0.6607142857142857
F1.0
F592.0
tp6279
a(F0.6618303571428571
F1.0
F593.0
tp6280
a(F0.6629464285714286
F1.0
F594.0
tp6281
a(F0.6640625
F1.0
F595.0
tp6282
a(F0.6651785714285714
F1.0
F596.0
tp6283
a(F0.6662946428571429
F1.0
F597.0
tp6284
a(F0.6674107142857143
F1.0
F598.0
tp6285
a(F0.6685267857142857
F1.0
F599.0
tp6286
a(F0.6696428571428571
F1.0
F600.0
tp6287
a(F0.6707589285714286
F1.0
F601.0
tp6288
a(F0.671875
F1.0
F602.0
tp6289
a(F0.6729910714285714
F1.0
F603.0
tp6290
a(F0.6741071428571429
F1.0
F604.0
tp6291
a(F0.6752232142857143
F1.0
F605.0
tp6292
a(F0.6763392857142857
F1.0
F606.0
tp6293
a(F0.6774553571428571
F1.0
F607.0
tp6294
a(F0.6785714285714286
F1.0
F608.0
tp6295
a(F0.6796875
F1.0
F609.0
tp6296
a(F0.6808035714285714
F1.0
F610.0
tp6297
a(F0.6819196428571429
F1.0
F611.0
tp6298
a(F0.6830357142857143
F1.0
F612.0
tp6299
a(F0.6841517857142857
F1.0
F613.0
tp6300
a(F0.6852678571428571
F1.0
F614.0
tp6301
a(F0.6863839285714286
F1.0
F615.0
tp6302
a(F0.6875
F1.0
F616.0
tp6303
a(F0.6886160714285714
F1.0
F617.0
tp6304
a(F0.6897321428571429
F1.0
F618.0
tp6305
a(F0.6908482142857143
F1.0
F619.0
tp6306
a(F0.6919642857142857
F1.0
F620.0
tp6307
a(F0.6930803571428571
F1.0
F621.0
tp6308
a(F0.6941964285714286
F1.0
F622.0
tp6309
a(F0.6953125
F1.0
F623.0
tp6310
a(F0.6964285714285714
F1.0
F624.0
tp6311
a(F0.6975446428571429
F1.0
F625.0
tp6312
a(F0.6986607142857143
F1.0
F626.0
tp6313
a(F0.6997767857142857
F1.0
F627.0
tp6314
a(F0.7008928571428571
F1.0
F628.0
tp6315
a(F0.7020089285714286
F1.0
F629.0
tp6316
a(F0.703125
F1.0
F630.0
tp6317
a(F0.7042410714285714
F1.0
F631.0
tp6318
a(F0.7053571428571429
F1.0
F632.0
tp6319
a(F0.7064732142857143
F1.0
F633.0
tp6320
a(F0.7075892857142857
F1.0
F634.0
tp6321
a(F0.7087053571428571
F1.0
F635.0
tp6322
a(F0.7098214285714286
F1.0
F636.0
tp6323
a(F0.7109375
F1.0
F637.0
tp6324
a(F0.7120535714285714
F1.0
F638.0
tp6325
a(F0.7131696428571429
F1.0
F639.0
tp6326
a(F0.7142857142857143
F1.0
F640.0
tp6327
a(F0.7154017857142857
F1.0
F641.0
tp6328
a(F0.7165178571428571
F1.0
F642.0
tp6329
a(F0.7176339285714286
F1.0
F643.0
tp6330
a(F0.71875
F1.0
F644.0
tp6331
a(F0.7198660714285714
F1.0
F645.0
tp6332
a(F0.7209821428571429
F1.0
F646.0
tp6333
a(F0.7220982142857143
F1.0
F647.0
tp6334
a(F0.7232142857142857
F1.0
F648.0
tp6335
a(F0.7243303571428571
F1.0
F649.0
tp6336
a(F0.7254464285714286
F1.0
F650.0
tp6337
a(F0.7265625
F1.0
F651.0
tp6338
a(F0.7276785714285714
F1.0
F652.0
tp6339
a(F0.7287946428571429
F1.0
F653.0
tp6340
a(F0.7299107142857143
F1.0
F654.0
tp6341
a(F0.7310267857142857
F1.0
F655.0
tp6342
a(F0.7321428571428571
F1.0
F656.0
tp6343
a(F0.7332589285714286
F1.0
F657.0
tp6344
a(F0.734375
F1.0
F658.0
tp6345
a(F0.7354910714285714
F1.0
F659.0
tp6346
a(F0.7366071428571429
F1.0
F660.0
tp6347
a(F0.7377232142857143
F1.0
F661.0
tp6348
a(F0.7388392857142857
F1.0
F662.0
tp6349
a(F0.7399553571428571
F1.0
F663.0
tp6350
a(F0.7410714285714286
F1.0
F664.0
tp6351
a(F0.7421875
F1.0
F665.0
tp6352
a(F0.7433035714285714
F1.0
F666.0
tp6353
a(F0.7444196428571429
F1.0
F667.0
tp6354
a(F0.7455357142857143
F1.0
F668.0
tp6355
a(F0.7466517857142857
F1.0
F669.0
tp6356
a(F0.7477678571428571
F1.0
F670.0
tp6357
a(F0.7488839285714286
F1.0
F671.0
tp6358
a(F0.75
F1.0
F672.0
tp6359
a(F0.7511160714285714
F1.0
F673.0
tp6360
a(F0.7522321428571429
F1.0
F674.0
tp6361
a(F0.7533482142857143
F1.0
F675.0
tp6362
a(F0.7544642857142857
F1.0
F676.0
tp6363
a(F0.7555803571428571
F1.0
F677.0
tp6364
a(F0.7566964285714286
F1.0
F678.0
tp6365
a(F0.7578125
F1.0
F679.0
tp6366
a(F0.7589285714285714
F1.0
F680.0
tp6367
a(F0.7600446428571429
F1.0
F681.0
tp6368
a(F0.7611607142857143
F1.0
F682.0
tp6369
a(F0.7622767857142857
F1.0
F683.0
tp6370
a(F0.7633928571428571
F1.0
F684.0
tp6371
a(F0.7645089285714286
F1.0
F685.0
tp6372
a(F0.765625
F1.0
F686.0
tp6373
a(F0.7667410714285714
F1.0
F687.0
tp6374
a(F0.7678571428571429
F1.0
F688.0
tp6375
a(F0.7689732142857143
F1.0
F689.0
tp6376
a(F0.7700892857142857
F1.0
F690.0
tp6377
a(F0.7712053571428571
F1.0
F691.0
tp6378
a(F0.7723214285714286
F1.0
F692.0
tp6379
a(F0.7734375
F1.0
F693.0
tp6380
a(F0.7745535714285714
F1.0
F694.0
tp6381
a(F0.7756696428571429
F1.0
F695.0
tp6382
a(F0.7767857142857143
F1.0
F696.0
tp6383
a(F0.7779017857142857
F1.0
F697.0
tp6384
a(F0.7790178571428571
F1.0
F698.0
tp6385
a(F0.7801339285714286
F1.0
F699.0
tp6386
a(F0.78125
F1.0
F700.0
tp6387
a(F0.7823660714285714
F1.0
F701.0
tp6388
a(F0.7834821428571429
F1.0
F702.0
tp6389
a(F0.7845982142857143
F1.0
F703.0
tp6390
a(F0.7857142857142857
F1.0
F704.0
tp6391
a(F0.7868303571428571
F1.0
F705.0
tp6392
a(F0.7879464285714286
F1.0
F706.0
tp6393
a(F0.7890625
F1.0
F707.0
tp6394
a(F0.7901785714285714
F1.0
F708.0
tp6395
a(F0.7912946428571429
F1.0
F709.0
tp6396
a(F0.7924107142857143
F1.0
F710.0
tp6397
a(F0.7935267857142857
F1.0
F711.0
tp6398
a(F0.7946428571428571
F1.0
F712.0
tp6399
a(F0.7957589285714286
F1.0
F713.0
tp6400
a(F0.796875
F1.0
F714.0
tp6401
a(F0.7979910714285714
F1.0
F715.0
tp6402
a(F0.7991071428571429
F1.0
F716.0
tp6403
a(F0.8002232142857143
F1.0
F717.0
tp6404
a(F0.8013392857142857
F1.0
F718.0
tp6405
a(F0.8024553571428571
F1.0
F719.0
tp6406
a(F0.8035714285714286
F1.0
F720.0
tp6407
a(F0.8046875
F1.0
F721.0
tp6408
a(F0.8058035714285714
F1.0
F722.0
tp6409
a(F0.8069196428571429
F1.0
F723.0
tp6410
a(F0.8080357142857143
F1.0
F724.0
tp6411
a(F0.8091517857142857
F1.0
F725.0
tp6412
a(F0.8102678571428571
F1.0
F726.0
tp6413
a(F0.8113839285714286
F1.0
F727.0
tp6414
a(F0.8125
F1.0
F728.0
tp6415
a(F0.8136160714285714
F1.0
F729.0
tp6416
a(F0.8147321428571429
F1.0
F730.0
tp6417
a(F0.8158482142857143
F1.0
F731.0
tp6418
a(F0.8169642857142857
F1.0
F732.0
tp6419
a(F0.8180803571428571
F1.0
F733.0
tp6420
a(F0.8191964285714286
F1.0
F734.0
tp6421
a(F0.8203125
F1.0
F735.0
tp6422
a(F0.8214285714285714
F1.0
F736.0
tp6423
a(F0.8225446428571429
F1.0
F737.0
tp6424
a(F0.8236607142857143
F1.0
F738.0
tp6425
a(F0.8247767857142857
F1.0
F739.0
tp6426
a(F0.8258928571428571
F1.0
F740.0
tp6427
a(F0.8270089285714286
F1.0
F741.0
tp6428
a(F0.828125
F1.0
F742.0
tp6429
a(F0.8292410714285714
F1.0
F743.0
tp6430
a(F0.8303571428571429
F1.0
F744.0
tp6431
a(F0.8314732142857143
F1.0
F745.0
tp6432
a(F0.8325892857142857
F1.0
F746.0
tp6433
a(F0.8337053571428571
F1.0
F747.0
tp6434
a(F0.8348214285714286
F1.0
F748.0
tp6435
a(F0.8359375
F1.0
F749.0
tp6436
a(F0.8370535714285714
F1.0
F750.0
tp6437
a(F0.8381696428571429
F1.0
F751.0
tp6438
a(F0.8392857142857143
F1.0
F752.0
tp6439
a(F0.8404017857142857
F1.0
F753.0
tp6440
a(F0.8415178571428571
F1.0
F754.0
tp6441
a(F0.8426339285714286
F1.0
F755.0
tp6442
a(F0.84375
F1.0
F756.0
tp6443
a(F0.8448660714285714
F1.0
F757.0
tp6444
a(F0.8459821428571429
F1.0
F758.0
tp6445
a(F0.8470982142857143
F1.0
F759.0
tp6446
a(F0.8482142857142857
F1.0
F760.0
tp6447
a(F0.8493303571428571
F1.0
F761.0
tp6448
a(F0.8504464285714286
F1.0
F762.0
tp6449
a(F0.8515625
F1.0
F763.0
tp6450
a(F0.8526785714285714
F1.0
F764.0
tp6451
a(F0.8537946428571429
F1.0
F765.0
tp6452
a(F0.8560267857142857
F1.0
F767.0
tp6453
a(F0.8571428571428571
F1.0
F768.0
tp6454
a(F0.8582589285714286
F1.0
F769.0
tp6455
a(F0.859375
F1.0
F770.0
tp6456
a(F0.8604910714285714
F1.0
F771.0
tp6457
a(F0.8616071428571429
F1.0
F772.0
tp6458
a(F0.8627232142857143
F1.0
F773.0
tp6459
a(F0.8638392857142857
F1.0
F774.0
tp6460
a(F0.8649553571428571
F1.0
F775.0
tp6461
a(F0.8660714285714286
F1.0
F776.0
tp6462
a(F0.8671875
F1.0
F777.0
tp6463
a(F0.8683035714285714
F1.0
F778.0
tp6464
a(F0.8694196428571429
F1.0
F779.0
tp6465
a(F0.8705357142857143
F1.0
F780.0
tp6466
a(F0.8716517857142857
F1.0
F781.0
tp6467
a(F0.8738839285714286
F1.0
F783.0
tp6468
a(F0.875
F1.0
F784.0
tp6469
a(F0.8761160714285714
F1.0
F785.0
tp6470
a(F0.8772321428571429
F1.0
F786.0
tp6471
a(F0.8783482142857143
F1.0
F787.0
tp6472
a(F0.8794642857142857
F1.0
F788.0
tp6473
a(F0.8805803571428571
F1.0
F789.0
tp6474
a(F0.8816964285714286
F1.0
F790.0
tp6475
a(F0.8828125
F1.0
F791.0
tp6476
a(F0.8839285714285714
F1.0
F792.0
tp6477
a(F0.8850446428571429
F1.0
F793.0
tp6478
a(F0.8861607142857143
F1.0
F794.0
tp6479
a(F0.8872767857142857
F1.0
F795.0
tp6480
a(F0.8883928571428571
F1.0
F796.0
tp6481
a(F0.8895089285714286
F1.0
F797.0
tp6482
a(F0.890625
F1.0
F798.0
tp6483
a(F0.8917410714285714
F1.0
F799.0
tp6484
a(F0.8928571428571429
F1.0
F800.0
tp6485
a(F0.8939732142857143
F1.0
F801.0
tp6486
a(F0.8950892857142857
F1.0
F802.0
tp6487
a(F0.8962053571428571
F1.0
F803.0
tp6488
a(F0.8973214285714286
F1.0
F804.0
tp6489
a(F0.8984375
F1.0
F805.0
tp6490
a(F0.8995535714285714
F1.0
F806.0
tp6491
a(F0.9006696428571429
F1.0
F807.0
tp6492
a(F0.9017857142857143
F1.0
F808.0
tp6493
a(F0.9029017857142857
F1.0
F809.0
tp6494
a(F0.9040178571428571
F1.0
F810.0
tp6495
a(F0.9051339285714286
F1.0
F811.0
tp6496
a(F0.90625
F1.0
F812.0
tp6497
a(F0.9073660714285714
F1.0
F813.0
tp6498
a(F0.9084821428571429
F1.0
F814.0
tp6499
a(F0.9095982142857143
F1.0
F815.0
tp6500
a(F0.9107142857142857
F1.0
F816.0
tp6501
a(F0.9118303571428571
F1.0
F817.0
tp6502
a(F0.9129464285714286
F1.0
F818.0
tp6503
a(F0.9140625
F1.0
F819.0
tp6504
a(F0.9151785714285714
F1.0
F820.0
tp6505
a(F0.9162946428571429
F1.0
F821.0
tp6506
a(F0.9174107142857143
F1.0
F822.0
tp6507
a(F0.9185267857142857
F1.0
F823.0
tp6508
a(F0.9196428571428571
F1.0
F824.0
tp6509
a(F0.9207589285714286
F1.0
F825.0
tp6510
a(F0.921875
F1.0
F826.0
tp6511
a(F0.9229910714285714
F1.0
F827.0
tp6512
a(F0.9241071428571429
F1.0
F828.0
tp6513
a(F0.9252232142857143
F1.0
F829.0
tp6514
a(F0.9263392857142857
F1.0
F830.0
tp6515
a(F0.9285714285714286
F1.0
F832.0
tp6516
a(F0.9296875
F1.0
F833.0
tp6517
a(F0.9308035714285714
F1.0
F834.0
tp6518
a(F0.9319196428571429
F1.0
F835.0
tp6519
a(F0.9330357142857143
F1.0
F836.0
tp6520
a(F0.9341517857142857
F1.0
F837.0
tp6521
a(F0.9363839285714286
F1.0
F839.0
tp6522
a(F0.9375
F1.0
F840.0
tp6523
a(F0.9386160714285714
F1.0
F841.0
tp6524
a(F0.9397321428571429
F1.0
F842.0
tp6525
a(F0.9408482142857143
F1.0
F843.0
tp6526
a(F0.9419642857142857
F1.0
F844.0
tp6527
a(F0.9430803571428571
F1.0
F845.0
tp6528
a(F0.9441964285714286
F1.0
F846.0
tp6529
a(F0.9464285714285714
F1.0
F848.0
tp6530
a(F0.9475446428571429
F1.0
F849.0
tp6531
a(F0.9486607142857143
F1.0
F850.0
tp6532
a(F0.9497767857142857
F1.0
F851.0
tp6533
a(F0.9508928571428571
F1.0
F852.0
tp6534
a(F0.9520089285714286
F1.0
F853.0
tp6535
a(F0.953125
F1.0
F854.0
tp6536
a(F0.9542410714285714
F1.0
F855.0
tp6537
a(F0.9553571428571429
F1.0
F856.0
tp6538
a(F0.9564732142857143
F1.0
F857.0
tp6539
a(F0.9575892857142857
F1.0
F858.0
tp6540
a(F0.9587053571428571
F1.0
F859.0
tp6541
a(F0.9598214285714286
F1.0
F860.0
tp6542
a(F0.9609375
F1.0
F861.0
tp6543
a(F0.9620535714285714
F1.0
F862.0
tp6544
a(F0.9631696428571429
F1.0
F863.0
tp6545
a(F0.9642857142857143
F1.0
F864.0
tp6546
a(F0.9654017857142857
F1.0
F865.0
tp6547
a(F0.9665178571428571
F1.0
F866.0
tp6548
a(F0.9676339285714286
F1.0
F867.0
tp6549
a(F0.96875
F1.0
F868.0
tp6550
a(F0.9698660714285714
F1.0
F869.0
tp6551
a(F0.9709821428571429
F1.0
F870.0
tp6552
a(F0.9720982142857143
F1.0
F871.0
tp6553
a(F0.9732142857142857
F1.0
F872.0
tp6554
a(F0.9743303571428571
F1.0
F873.0
tp6555
a(F0.9754464285714286
F1.0
F874.0
tp6556
a(F0.9765625
F1.0
F875.0
tp6557
a(F0.9787946428571429
F1.0
F877.0
tp6558
a(F0.9799107142857143
F1.0
F878.0
tp6559
a(F0.9810267857142857
F1.0
F879.0
tp6560
a(F0.9821428571428571
F1.0
F880.0
tp6561
a(F0.9832589285714286
F1.0
F881.0
tp6562
a(F0.9866071428571429
F1.0
F884.0
tp6563
a(F0.9877232142857143
F1.0
F885.0
tp6564
a(F0.9888392857142857
F1.0
F886.0
tp6565
a(F0.9899553571428571
F1.0
F887.0
tp6566
a(F0.9910714285714286
F1.0
F888.0
tp6567
a(F0.9921875
F1.0
F889.0
tp6568
a(F0.9933035714285714
F1.0
F890.0
tp6569
a(F0.9944196428571429
F1.0
F891.0
tp6570
a(F0.9955357142857143
F1.0
F892.0
tp6571
a(F0.9977678571428571
F1.0
F894.0
tp6572
a(F1.0
F1.0
F896.0
tp6573
asb.