ccopy_reg
_reconstructor
p0
(cPyRoc
ROCData
p1
c__builtin__
object
p2
Ntp3
Rp4
(dp5
S'linestyle'
p6
S'r-'
p7
sS'data'
p8
(lp9
(I1
cnumpy.core.multiarray
scalar
p10
(cnumpy
dtype
p11
(S'f8'
p12
I0
I1
tp13
Rp14
(I3
S'<'
p15
NNNI-1
I-1
I0
tp16
bS'=\x9e\xd8\xcd*\xec\xee?'
p17
tp18
Rp19
tp20
a(I1
g10
(g14
S'\xec0a2\x12\xdc\xee?'
p21
tp22
Rp23
tp24
a(I1
g10
(g14
S'W\xc8\xeb"\x95\xb8\xee?'
p25
tp26
Rp27
tp28
a(I1
g10
(g14
S'\x81\x16\x82-yT\xee?'
p29
tp30
Rp31
tp32
a(I1
g10
(g14
S'\x98\x9d)\x88\x83\x9d\xed?'
p33
tp34
Rp35
tp36
a(I1
g10
(g14
S'nm\x9a\x81QD\xed?'
p37
tp38
Rp39
tp40
a(I1
g10
(g14
S'\xf7\x0fGR\x9f\t\xed?'
p41
tp42
Rp43
tp44
a(I1
g10
(g14
S'2]\xf7X\xd4\xf7\xec?'
p45
tp46
Rp47
tp48
a(I1
g10
(g14
S'I\x91\x99\x84\x9bp\xec?'
p49
tp50
Rp51
tp52
a(I1
g10
(g14
S'\xf3\x08\x83\x8f6X\xec?'
p53
tp54
Rp55
tp56
a(I1
g10
(g14
S'\t\x02\x87\xd6\xceS\xec?'
p57
tp58
Rp59
tp60
a(I1
g10
(g14
S'\x08p\xfe\x9e\x90M\xec?'
p61
tp62
Rp63
tp64
a(I1
g10
(g14
S']\xe9\x0cOc<\xec?'
p65
tp66
Rp67
tp68
a(I1
g10
(g14
S'Qj\xac\xeea\x1f\xec?'
p69
tp70
Rp71
tp72
a(I1
g10
(g14
S'\x89f\x10\x89K\x1f\xec?'
p73
tp74
Rp75
tp76
a(I1
g10
(g14
S'\x01\x9a\x82r\xd7\x0c\xec?'
p77
tp78
Rp79
tp80
a(I1
g10
(g14
S'\xfb\x9e\xef\xf9\x9e\xef\xeb?'
p81
tp82
Rp83
tp84
a(I1
g10
(g14
S'\xaa\xe0\xeb8\xa3\xe1\xeb?'
p85
tp86
Rp87
tp88
a(I1
g10
(g14
S'r\xbd[\xd3U\xa6\xeb?'
p89
tp90
Rp91
tp92
a(I1
g10
(g14
S'j*\xde\xa5O\xa6\xeb?'
p93
tp94
Rp95
tp96
a(I1
g10
(g14
S'2"^Nmi\xeb?'
p97
tp98
Rp99
tp100
a(I1
g10
(g14
S'\x9dq\xb3\xd0\xa4f\xeb?'
p101
tp102
Rp103
tp104
a(I1
g10
(g14
S'\xa4\xf7\x03\xa4\xdc\x12\xeb?'
p105
tp106
Rp107
tp108
a(I1
g10
(g14
S')\xcft\x89\xbc\x10\xeb?'
p109
tp110
Rp111
tp112
a(I1
g10
(g14
S'\xf8\xb1\x88\xa0\x9b\x10\xeb?'
p113
tp114
Rp115
tp116
a(I1
g10
(g14
S'\xd1\xd4\x8a\x82\xbc\xfa\xea?'
p117
tp118
Rp119
tp120
a(I1
g10
(g14
S'(B\xad\x1d\x86\xfa\xea?'
p121
tp122
Rp123
tp124
a(I1
g10
(g14
S'3\x10[\xd8\xda\xf3\xea?'
p125
tp126
Rp127
tp128
a(I1
g10
(g14
S'Ak\r\xb7\x06\xf1\xea?'
p129
tp130
Rp131
tp132
a(I1
g10
(g14
S'c\xccm\xe1\x8f\xc8\xea?'
p133
tp134
Rp135
tp136
a(I1
g10
(g14
S'\xc0kN\xf4w\xbd\xea?'
p137
tp138
Rp139
tp140
a(I1
g10
(g14
S'\xa0\xd0.U4\xb4\xea?'
p141
tp142
Rp143
tp144
a(I1
g10
(g14
S'\x17_\xe8\x11\xcb\xac\xea?'
p145
tp146
Rp147
tp148
a(I1
g10
(g14
S'\xd8\x9d\x1e\x88\x94\xac\xea?'
p149
tp150
Rp151
tp152
a(I1
g10
(g14
S'\x7f\xae)5\xe8\x9f\xea?'
p153
tp154
Rp155
tp156
a(I1
g10
(g14
S'l\x83\xb7\xfb\x9f\x88\xea?'
p157
tp158
Rp159
tp160
a(I1
g10
(g14
S'\x0cE\t\xc4\xa2x\xea?'
p161
tp162
Rp163
tp164
a(I1
g10
(g14
S'\xaf\xdd\xb3\xabIx\xea?'
p165
tp166
Rp167
tp168
a(I1
g10
(g14
S'C=\x11\xa0\x96q\xea?'
p169
tp170
Rp171
tp172
a(I1
g10
(g14
S'-\r\xb5\xb0.i\xea?'
p173
tp174
Rp175
tp176
a(I1
g10
(g14
S'#\xef{K\xa5f\xea?'
p177
tp178
Rp179
tp180
a(I1
g10
(g14
S'\xef\xdaV\x83\x8bc\xea?'
p181
tp182
Rp183
tp184
a(I1
g10
(g14
S'\x14\xb1q{\x17X\xea?'
p185
tp186
Rp187
tp188
a(I1
g10
(g14
S'!\xef\x1f\xe5\x08B\xea?'
p189
tp190
Rp191
tp192
a(I1
g10
(g14
S'\x01\xb2 r\xef*\xea?'
p193
tp194
Rp195
tp196
a(I1
g10
(g14
S'`\x0b\x92P\xbb#\xea?'
p197
tp198
Rp199
tp200
a(I1
g10
(g14
S't\xe4k\xb2H\x1e\xea?'
p201
tp202
Rp203
tp204
a(I1
g10
(g14
S'\xe9\xd5\x19kc\x12\xea?'
p205
tp206
Rp207
tp208
a(I1
g10
(g14
S'V\xa0Rii\x0b\xea?'
p209
tp210
Rp211
tp212
a(I1
g10
(g14
S'\x0f=\x8a\xa7\x0c\x06\xea?'
p213
tp214
Rp215
tp216
a(I1
g10
(g14
S'\x1f\xf1\x02 \xf1\x02\xea?'
p217
tp218
Rp219
tp220
a(I1
g10
(g14
S'!\x10u\xfe\xa1\xfc\xe9?'
p221
tp222
Rp223
tp224
a(I1
g10
(g14
S'\xbc/\xb2w\xe2\xf2\xe9?'
p225
tp226
Rp227
tp228
a(I1
g10
(g14
S'\xae\xc1\xf6\xdc`\xee\xe9?'
p229
tp230
Rp231
tp232
a(I1
g10
(g14
S'\xba\n\x8f!\xfe\xe7\xe9?'
p233
tp234
Rp235
tp236
a(I1
g10
(g14
S'C\x1e\xaf\xb3\n\xe6\xe9?'
p237
tp238
Rp239
tp240
a(I1
g10
(g14
S'\x18\x86a\x18\x86\xe1\xe9?'
p241
tp242
Rp243
tp244
a(I1
g10
(g14
S'\xfc4\x8e\xd2\x0e\xe1\xe9?'
p245
tp246
Rp247
tp248
a(I1
g10
(g14
S'\xa5\xf4\xf4\xeb\xf0\xe0\xe9?'
p249
tp250
Rp251
tp252
a(I1
g10
(g14
S'xe-\xac\x98\xe0\xe9?'
p253
tp254
Rp255
tp256
a(I1
g10
(g14
S'\x91\x87hW\xf6\xdb\xe9?'
p257
tp258
Rp259
tp260
a(I1
g10
(g14
S'h\xab#\x80\xe1\xd3\xe9?'
p261
tp262
Rp263
tp264
a(I1
g10
(g14
S'\xbd\xaa\xf11|\xb7\xe9?'
p265
tp266
Rp267
tp268
a(I1
g10
(g14
S'\x11\x03\x82\xf3G\xb4\xe9?'
p269
tp270
Rp271
tp272
a(I1
g10
(g14
S'3\xc18\xd2\xb8\xab\xe9?'
p273
tp274
Rp275
tp276
a(I1
g10
(g14
S';`\xd1\xc7X\xa9\xe9?'
p277
tp278
Rp279
tp280
a(I1
g10
(g14
S'\xf1!\xbf\xce\xed\xa6\xe9?'
p281
tp282
Rp283
tp284
a(I1
g10
(g14
S'[\xe9mx\xe3\xa5\xe9?'
p285
tp286
Rp287
tp288
a(I1
g10
(g14
S'ZW\xc6O\x80\xa2\xe9?'
p289
tp290
Rp291
tp292
a(I1
g10
(g14
S'\xb2\xef\xbe\xda\xc0\x9a\xe9?'
p293
tp294
Rp295
tp296
a(I1
g10
(g14
S'\\8\xc2HT\x98\xe9?'
p297
tp298
Rp299
tp300
a(I1
g10
(g14
S'\xa97\x06\x92\xda\x91\xe9?'
p301
tp302
Rp303
tp304
a(I1
g10
(g14
S'\x04\xddR}\xf1\x80\xe9?'
p305
tp306
Rp307
tp308
a(I1
g10
(g14
S'{\x8a\x84[_t\xe9?'
p309
tp310
Rp311
tp312
a(I1
g10
(g14
S')\x0b\xd9Pgh\xe9?'
p313
tp314
Rp315
tp316
a(I1
g10
(g14
S'\x80C\\\xa7\xba\\\xe9?'
p317
tp318
Rp319
tp320
a(I1
g10
(g14
S'\x9a!\xb6FBS\xe9?'
p321
tp322
Rp323
tp324
a(I1
g10
(g14
S'\x8eY/\xf7SQ\xe9?'
p325
tp326
Rp327
tp328
a(I1
g10
(g14
S'\xf7\x8e\xbb\x1e\xebJ\xe9?'
p329
tp330
Rp331
tp332
a(I1
g10
(g14
S'\x1c\xeb\xda\xa6\rB\xe9?'
p333
tp334
Rp335
tp336
a(I1
g10
(g14
S'3\x86\x03B\xb47\xe9?'
p337
tp338
Rp339
tp340
a(I1
g10
(g14
S'\xb6\xba\xa5\xfd\x80/\xe9?'
p341
tp342
Rp343
tp344
a(I1
g10
(g14
S'\xdflU\x91!.\xe9?'
p345
tp346
Rp347
tp348
a(I1
g10
(g14
S'\x97\x86\xd32\xcf\x19\xe9?'
p349
tp350
Rp351
tp352
a(I1
g10
(g14
S'\xfdk\xaa\x13\xe4\x0f\xe9?'
p353
tp354
Rp355
tp356
a(I1
g10
(g14
S'\x04\x19\xf0$M\x08\xe9?'
p357
tp358
Rp359
tp360
a(I1
g10
(g14
S'\x94#-1Q\x02\xe9?'
p361
tp362
Rp363
tp364
a(I1
g10
(g14
S'\x05\x86\x93k\xec\xf9\xe8?'
p365
tp366
Rp367
tp368
a(I1
g10
(g14
S'\x7f\xbe\xc3\xd6h\xf7\xe8?'
p369
tp370
Rp371
tp372
a(I1
g10
(g14
S'\xc9\xdb7\xa5\xf8\xf2\xe8?'
p373
tp374
Rp375
tp376
a(I1
g10
(g14
S'?!\xf5\xcc\xe3\xea\xe8?'
p377
tp378
Rp379
tp380
a(I1
g10
(g14
S'\x98\n\x0e}\x19\xde\xe8?'
p381
tp382
Rp383
tp384
a(I1
g10
(g14
S'|\x0f\xc6T\xcb\xdc\xe8?'
p385
tp386
Rp387
tp388
a(I1
g10
(g14
S'\xf8|q\xbe\x06\xd6\xe8?'
p389
tp390
Rp391
tp392
a(I1
g10
(g14
S'\xbb\x8d\xd5&\xe2\xd2\xe8?'
p393
tp394
Rp395
tp396
a(I1
g10
(g14
S'\xf6\xd4+\x00\xac\xcf\xe8?'
p397
tp398
Rp399
tp400
a(I1
g10
(g14
S'd\x82\xfe\xee\xb0\xb8\xe8?'
p401
tp402
Rp403
tp404
a(I1
g10
(g14
S'\xfa\xc2\xd1\x16c\xae\xe8?'
p405
tp406
Rp407
tp408
a(I1
g10
(g14
S'\x173\xa6G\xb7\xac\xe8?'
p409
tp410
Rp411
tp412
a(I1
g10
(g14
S'\x06\xb1\x9f\xbd\xcf\xa4\xe8?'
p413
tp414
Rp415
tp416
a(I0
g10
(g14
S'J;_C\xec\xa3\xe8?'
p417
tp418
Rp419
tp420
a(I0
g10
(g14
S'\x13+\xfe\xa3\xd2\x82\xe8?'
p421
tp422
Rp423
tp424
a(I1
g10
(g14
S'SuH\x14kq\xe8?'
p425
tp426
Rp427
tp428
a(I1
g10
(g14
S'\x86\xe2\x15\x16He\xe8?'
p429
tp430
Rp431
tp432
a(I1
g10
(g14
S'fm\x10\x8eY]\xe8?'
p433
tp434
Rp435
tp436
a(I1
g10
(g14
S'\xd7\x9b\\\x9aTZ\xe8?'
p437
tp438
Rp439
tp440
a(I1
g10
(g14
S':\xfbH\xc3zV\xe8?'
p441
tp442
Rp443
tp444
a(I1
g10
(g14
S'\x9b\xe1\xa4D\xe3R\xe8?'
p445
tp446
Rp447
tp448
a(I1
g10
(g14
S'\x96yt\x92\xcaG\xe8?'
p449
tp450
Rp451
tp452
a(I1
g10
(g14
S'8X?*#B\xe8?'
p453
tp454
Rp455
tp456
a(I1
g10
(g14
S' ?\x89\xfcv5\xe8?'
p457
tp458
Rp459
tp460
a(I1
g10
(g14
S'\x9a\xdd\xec\xad\x8b4\xe8?'
p461
tp462
Rp463
tp464
a(I1
g10
(g14
S'\xb4\x9e7\xd4\x082\xe8?'
p465
tp466
Rp467
tp468
a(I1
g10
(g14
S'\x8c\xde\x96\xb5:&\xe8?'
p469
tp470
Rp471
tp472
a(I1
g10
(g14
S'\xd6O\xf6O\x7f\x15\xe8?'
p473
tp474
Rp475
tp476
a(I1
g10
(g14
S'\xcf\xf5\x99G\xc4\x14\xe8?'
p477
tp478
Rp479
tp480
a(I1
g10
(g14
S'Sd,\xf3v\x10\xe8?'
p481
tp482
Rp483
tp484
a(I1
g10
(g14
S'\x9f&\x8e\xc5\x9d\x0e\xe8?'
p485
tp486
Rp487
tp488
a(I1
g10
(g14
S'\xb3\xc8\x90j\x02\x07\xe8?'
p489
tp490
Rp491
tp492
a(I1
g10
(g14
S'\xca\x10u\xab\xa6\xfa\xe7?'
p493
tp494
Rp495
tp496
a(I1
g10
(g14
S'\xc4c1\xd8\x11\xf9\xe7?'
p497
tp498
Rp499
tp500
a(I1
g10
(g14
S'\x80\x92z\xc8s\xf5\xe7?'
p501
tp502
Rp503
tp504
a(I1
g10
(g14
S'4\xe7\x88\r\xbf\xe8\xe7?'
p505
tp506
Rp507
tp508
a(I1
g10
(g14
S'\x92L.\x10j\xe4\xe7?'
p509
tp510
Rp511
tp512
a(I1
g10
(g14
S'al\xd7\xf7V\xc4\xe7?'
p513
tp514
Rp515
tp516
a(I1
g10
(g14
S'\x97\x17\xdbwU\xc4\xe7?'
p517
tp518
Rp519
tp520
a(I1
g10
(g14
S'\xddX\xf2\xc1g\xc2\xe7?'
p521
tp522
Rp523
tp524
a(I1
g10
(g14
S'n\x93Q\x8c3\xae\xe7?'
p525
tp526
Rp527
tp528
a(I1
g10
(g14
S'\x86\x9f\x1e\x97\xd4\x9b\xe7?'
p529
tp530
Rp531
tp532
a(I1
g10
(g14
S'\xe4\x87\xb1K\xee\x97\xe7?'
p533
tp534
Rp535
tp536
a(I1
g10
(g14
S'\xdc\x1a\xa4\xd1C\x80\xe7?'
p537
tp538
Rp539
tp540
a(I1
g10
(g14
S'\x1a\x88\xc8 \x89{\xe7?'
p541
tp542
Rp543
tp544
a(I1
g10
(g14
S'\xc4\x97\x96\x88!{\xe7?'
p545
tp546
Rp547
tp548
a(I1
g10
(g14
S'\xecx\xacgWx\xe7?'
p549
tp550
Rp551
tp552
a(I1
g10
(g14
S'\xad\xcd8Q>v\xe7?'
p553
tp554
Rp555
tp556
a(I1
g10
(g14
S'D\x1c\x98\xf8\x8bp\xe7?'
p557
tp558
Rp559
tp560
a(I1
g10
(g14
S'\xf2\xcfX~Xn\xe7?'
p561
tp562
Rp563
tp564
a(I1
g10
(g14
S'\x12\xfc\x9f\xde\xc8l\xe7?'
p565
tp566
Rp567
tp568
a(I1
g10
(g14
S'q\xb1\x01\x88)g\xe7?'
p569
tp570
Rp571
tp572
a(I1
g10
(g14
S'\x80t\x84l\x90Z\xe7?'
p573
tp574
Rp575
tp576
a(I1
g10
(g14
S'\xbb\xd0\x93U\x19Z\xe7?'
p577
tp578
Rp579
tp580
a(I1
g10
(g14
S'}\xf68\xea\x14T\xe7?'
p581
tp582
Rp583
tp584
a(I1
g10
(g14
S'\xb4\xfc\x85\xafhJ\xe7?'
p585
tp586
Rp587
tp588
a(I1
g10
(g14
S',\xeegj\xf8>\xe7?'
p589
tp590
Rp591
tp592
a(I1
g10
(g14
S'\xcf%\xedy\xa30\xe7?'
p593
tp594
Rp595
tp596
a(I1
g10
(g14
S'<\x05\x86\xae\x0c.\xe7?'
p597
tp598
Rp599
tp600
a(I1
g10
(g14
S'WWH\xed\\&\xe7?'
p601
tp602
Rp603
tp604
a(I1
g10
(g14
S'\x9b\x8d\xcd7\xbb"\xe7?'
p605
tp606
Rp607
tp608
a(I1
g10
(g14
S'\x1a\xd6\xee\xfc\x1a!\xe7?'
p609
tp610
Rp611
tp612
a(I1
g10
(g14
S'rfq\xedz\x1f\xe7?'
p613
tp614
Rp615
tp616
a(I1
g10
(g14
S'\xca\xb0P\xeb\x8f\x17\xe7?'
p617
tp618
Rp619
tp620
a(I1
g10
(g14
S'3\xe9\xb5`\xbe\x0f\xe7?'
p621
tp622
Rp623
tp624
a(I1
g10
(g14
S'M}\xbb\xd1h\r\xe7?'
p625
tp626
Rp627
tp628
a(I1
g10
(g14
S'\x1a\x15\xfd\xe7u\x05\xe7?'
p629
tp630
Rp631
tp632
a(I1
g10
(g14
S'J\x99\xcb30\x04\xe7?'
p633
tp634
Rp635
tp636
a(I1
g10
(g14
S'\xbdD?@K\x02\xe7?'
p637
tp638
Rp639
tp640
a(I1
g10
(g14
S'\xb3Y\xd7\x1cT\xf9\xe6?'
p641
tp642
Rp643
tp644
a(I1
g10
(g14
S'\xbf\xa9J6\x03\xf9\xe6?'
p645
tp646
Rp647
tp648
a(I1
g10
(g14
S'\x1d\xb4\xc2\xb0\n\xf4\xe6?'
p649
tp650
Rp651
tp652
a(I1
g10
(g14
S'\x89\xf9\x92\xaa\x0b\xf1\xe6?'
p653
tp654
Rp655
tp656
a(I1
g10
(g14
S'3\x93\xec\xccb\xe8\xe6?'
p657
tp658
Rp659
tp660
a(I1
g10
(g14
S')y\xc6\n"\xe8\xe6?'
p661
tp662
Rp663
tp664
a(I1
g10
(g14
S'\xb3,\xbbt\xd9\xe5\xe6?'
p665
tp666
Rp667
tp668
a(I1
g10
(g14
S'77G\xc0\x9b\xe3\xe6?'
p669
tp670
Rp671
tp672
a(I1
g10
(g14
S'\x9fN\xf3&\x04\xe3\xe6?'
p673
tp674
Rp675
tp676
a(I1
g10
(g14
S'\x9c\xb7\xf3jN\xde\xe6?'
p677
tp678
Rp679
tp680
a(I1
g10
(g14
S'\xff\xacf\xe0\xa6\xdb\xe6?'
p681
tp682
Rp683
tp684
a(I1
g10
(g14
S'\xf2\xcdU\x0b\x10\xd9\xe6?'
p685
tp686
Rp687
tp688
a(I1
g10
(g14
S'\xee\xc23\x0eE\xd4\xe6?'
p689
tp690
Rp691
tp692
a(I1
g10
(g14
S';$\xe8Y\xa9\xd3\xe6?'
p693
tp694
Rp695
tp696
a(I1
g10
(g14
S'w9\x98\xf3{\xd3\xe6?'
p697
tp698
Rp699
tp700
a(I1
g10
(g14
S'?\xccN\xd2\xe0\xca\xe6?'
p701
tp702
Rp703
tp704
a(I1
g10
(g14
S'dk\xdd\x04\xd0\xc7\xe6?'
p705
tp706
Rp707
tp708
a(I1
g10
(g14
S'\xb8\x0eY6\xb7\xc2\xe6?'
p709
tp710
Rp711
tp712
a(I1
g10
(g14
S'\xe3)\x88\x1dj\xc1\xe6?'
p713
tp714
Rp715
tp716
a(I1
g10
(g14
S'\x1d\xeefZ\xf8\xbd\xe6?'
p717
tp718
Rp719
tp720
a(I1
g10
(g14
S'\xa1\xc7@\xa9\xef\xb7\xe6?'
p721
tp722
Rp723
tp724
a(I1
g10
(g14
S'\xe0\x12hu3\xb7\xe6?'
p725
tp726
Rp727
tp728
a(I1
g10
(g14
S'\xbd!\x92\xc6A\xb4\xe6?'
p729
tp730
Rp731
tp732
a(I1
g10
(g14
S',ZK\xc9\x87\xa0\xe6?'
p733
tp734
Rp735
tp736
a(I1
g10
(g14
S'.\x8d\x1c\x9e\xe5\x97\xe6?'
p737
tp738
Rp739
tp740
a(I1
g10
(g14
S'\xe3\x16!n\x1e\x97\xe6?'
p741
tp742
Rp743
tp744
a(I1
g10
(g14
S' n\x8f\xd7\x8c\x94\xe6?'
p745
tp746
Rp747
tp748
a(I0
g10
(g14
S'#h\x1a\x87\xca\x82\xe6?'
p749
tp750
Rp751
tp752
a(I1
g10
(g14
S'a\x16\xddrsv\xe6?'
p753
tp754
Rp755
tp756
a(I1
g10
(g14
S';R\xbe\x8d\xefk\xe6?'
p757
tp758
Rp759
tp760
a(I1
g10
(g14
S'\xe1\x04\x96T\xbbj\xe6?'
p761
tp762
Rp763
tp764
a(I1
g10
(g14
S'&\xbf1[\xf2d\xe6?'
p765
tp766
Rp767
tp768
a(I1
g10
(g14
S'\xc8\x98:\xb0\x05d\xe6?'
p769
tp770
Rp771
tp772
a(I1
g10
(g14
S'\x0fR\xd8\xbecW\xe6?'
p773
tp774
Rp775
tp776
a(I1
g10
(g14
S'I{Dq\xd7S\xe6?'
p777
tp778
Rp779
tp780
a(I1
g10
(g14
S'4\xfc\x83\x00\xc9P\xe6?'
p781
tp782
Rp783
tp784
a(I1
g10
(g14
S'\xfa<\x8d\xadKA\xe6?'
p785
tp786
Rp787
tp788
a(I1
g10
(g14
S'H\xe4 Nd4\xe6?'
p789
tp790
Rp791
tp792
a(I1
g10
(g14
S'\x18\x13\x0c:,3\xe6?'
p793
tp794
Rp795
tp796
a(I1
g10
(g14
S'&\xa9\x0c\x0b-)\xe6?'
p797
tp798
Rp799
tp800
a(I1
g10
(g14
S']\xda\x0b\xa6\x85$\xe6?'
p801
tp802
Rp803
tp804
a(I1
g10
(g14
S'a\xa78\x80,$\xe6?'
p805
tp806
Rp807
tp808
a(I1
g10
(g14
S'\x0c\x80\x13K\x87\x1f\xe6?'
p809
tp810
Rp811
tp812
a(I1
g10
(g14
S'\xb4\x95\xde\x9f\xe7\x16\xe6?'
p813
tp814
Rp815
tp816
a(I1
g10
(g14
S'w?m2(\x10\xe6?'
p817
tp818
Rp819
tp820
a(I1
g10
(g14
S'\xae?\x07\xfe-\x08\xe6?'
p821
tp822
Rp823
tp824
a(I1
g10
(g14
S'RT\x08\xe2\x16\xfe\xe5?'
p825
tp826
Rp827
tp828
a(I1
g10
(g14
S'@M\xdc\x12\x93\xf3\xe5?'
p829
tp830
Rp831
tp832
a(I1
g10
(g14
S'm\xff\x14\x03\x05\xf3\xe5?'
p833
tp834
Rp835
tp836
a(I1
g10
(g14
S'hM\xebu\x9d\xd9\xe5?'
p837
tp838
Rp839
tp840
a(I1
g10
(g14
S'\xe6\xb1\x036c\xd9\xe5?'
p841
tp842
Rp843
tp844
a(I1
g10
(g14
S'\x12\xa4I<\x00\xd9\xe5?'
p845
tp846
Rp847
tp848
a(I1
g10
(g14
S'\xfa(\xa8\xad\xe9\xd3\xe5?'
p849
tp850
Rp851
tp852
a(I1
g10
(g14
S'\xfc\xde\xa6\xbe\xd4\xcf\xe5?'
p853
tp854
Rp855
tp856
a(I1
g10
(g14
S'\xee`\xfc}\xc6\xcb\xe5?'
p857
tp858
Rp859
tp860
a(I1
g10
(g14
S'\xce\xe4\xaa\x07[\xc6\xe5?'
p861
tp862
Rp863
tp864
a(I1
g10
(g14
S'hm\xf2\xfc\x8d\xc1\xe5?'
p865
tp866
Rp867
tp868
a(I1
g10
(g14
S'\xe0WB\xe5\x9a\xaa\xe5?'
p869
tp870
Rp871
tp872
a(I1
g10
(g14
S'\t\x04\x1fNX\xa7\xe5?'
p873
tp874
Rp875
tp876
a(I1
g10
(g14
S'8\x011\xc7\xc3\xa6\xe5?'
p877
tp878
Rp879
tp880
a(I1
g10
(g14
S'\xdc\xcf\x964\xcb\x9d\xe5?'
p881
tp882
Rp883
tp884
a(I1
g10
(g14
S'\xbf+q\x99c\x9d\xe5?'
p885
tp886
Rp887
tp888
a(I1
g10
(g14
S'\xbazxT\x14\x92\xe5?'
p889
tp890
Rp891
tp892
a(I1
g10
(g14
S'\x05\x13\x9f\xa5%\x83\xe5?'
p893
tp894
Rp895
tp896
a(I1
g10
(g14
S'\x88]\x82\xc3\xbfu\xe5?'
p897
tp898
Rp899
tp900
a(I1
g10
(g14
S'\xcdg[\x17\x13t\xe5?'
p901
tp902
Rp903
tp904
a(I1
g10
(g14
S'*\xdf\xbc\xd4wq\xe5?'
p905
tp906
Rp907
tp908
a(I1
g10
(g14
S'|5\x0e\xa3\xe2p\xe5?'
p909
tp910
Rp911
tp912
a(I1
g10
(g14
S'S\xa2\xc0m\x93p\xe5?'
p913
tp914
Rp915
tp916
a(I1
g10
(g14
S'\xceT+\x81\xfae\xe5?'
p917
tp918
Rp919
tp920
a(I1
g10
(g14
S'M\xb2G\xa7\x92]\xe5?'
p921
tp922
Rp923
tp924
a(I1
g10
(g14
S'q\x8d~\xedPY\xe5?'
p925
tp926
Rp927
tp928
a(I1
g10
(g14
S'\xa3\x14\xe1\xfb*Y\xe5?'
p929
tp930
Rp931
tp932
a(I1
g10
(g14
S'\xb7\xed3:*Y\xe5?'
p933
tp934
Rp935
tp936
a(I1
g10
(g14
S'\xce\xbcp|\x04R\xe5?'
p937
tp938
Rp939
tp940
a(I1
g10
(g14
S'\xc3\xf6\xb5\xf3_K\xe5?'
p941
tp942
Rp943
tp944
a(I1
g10
(g14
S'\xe5\x18\xc1\x9cR7\xe5?'
p945
tp946
Rp947
tp948
a(I1
g10
(g14
S"\x8f\x1d^\xcd'5\xe5?"
p949
tp950
Rp951
tp952
a(I1
g10
(g14
S'X9\xd2\x0c\xf72\xe5?'
p953
tp954
Rp955
tp956
a(I1
g10
(g14
S'\xa8\xae\x81\x16\xb2+\xe5?'
p957
tp958
Rp959
tp960
a(I1
g10
(g14
S'i\xe8\xca\x0e#&\xe5?'
p961
tp962
Rp963
tp964
a(I1
g10
(g14
S'\xcf\xb2P\x1c\xf2$\xe5?'
p965
tp966
Rp967
tp968
a(I1
g10
(g14
S'&q\xd7P\xa6"\xe5?'
p969
tp970
Rp971
tp972
a(I1
g10
(g14
S'[@\xce\xdf+ \xe5?'
p973
tp974
Rp975
tp976
a(I1
g10
(g14
S'\xa1\x96fq\xeb\x1b\xe5?'
p977
tp978
Rp979
tp980
a(I1
g10
(g14
S'Z^\xce\x1d\x1e\x15\xe5?'
p981
tp982
Rp983
tp984
a(I1
g10
(g14
S'\x8d\xe9\xad\xf3O\x14\xe5?'
p985
tp986
Rp987
tp988
a(I1
g10
(g14
S'2\xff\xc3\x1e6\x0b\xe5?'
p989
tp990
Rp991
tp992
a(I1
g10
(g14
S'\xf3\xae3\xef\xff\x06\xe5?'
p993
tp994
Rp995
tp996
a(I1
g10
(g14
S'O\xe3\xca\xb3\x9a\x04\xe5?'
p997
tp998
Rp999
tp1000
a(I1
g10
(g14
S'x\xdb\xdf\xef\x98\xfd\xe4?'
p1001
tp1002
Rp1003
tp1004
a(I1
g10
(g14
S'\xb1\xc7-\x9d\xfe\xf4\xe4?'
p1005
tp1006
Rp1007
tp1008
a(I1
g10
(g14
S'\x11\x81~\x8d)\xe8\xe4?'
p1009
tp1010
Rp1011
tp1012
a(I1
g10
(g14
S'\xa8-"\x04\xbd\xe4\xe4?'
p1013
tp1014
Rp1015
tp1016
a(I1
g10
(g14
S'\xe1\x94\xdb\xb1\xf5\xe3\xe4?'
p1017
tp1018
Rp1019
tp1020
a(I1
g10
(g14
S'\xfa\xdfW\xba\x0b\xe3\xe4?'
p1021
tp1022
Rp1023
tp1024
a(I1
g10
(g14
S'.\x08\xe9\r\xb9\xdf\xe4?'
p1025
tp1026
Rp1027
tp1028
a(I1
g10
(g14
S'\xc6<c\x1eS\xdb\xe4?'
p1029
tp1030
Rp1031
tp1032
a(I1
g10
(g14
S'\x84\xde\xf3c\xc3\xd9\xe4?'
p1033
tp1034
Rp1035
tp1036
a(I1
g10
(g14
S'&\x8f\xc9fH\xcd\xe4?'
p1037
tp1038
Rp1039
tp1040
a(I1
g10
(g14
S'\x1cQ\x18\xc8\xe9\xcc\xe4?'
p1041
tp1042
Rp1043
tp1044
a(I1
g10
(g14
S'\xcd\x97\xa1a\x12\xcc\xe4?'
p1045
tp1046
Rp1047
tp1048
a(I1
g10
(g14
S'\x11\n-\x12\xd4\xca\xe4?'
p1049
tp1050
Rp1051
tp1052
a(I1
g10
(g14
S'\xe6\x89s\x12z\xbe\xe4?'
p1053
tp1054
Rp1055
tp1056
a(I1
g10
(g14
S'\x1c\xff-\x1fV\xbe\xe4?'
p1057
tp1058
Rp1059
tp1060
a(I1
g10
(g14
S'\x9a\x1b\xcag\xb2\xb4\xe4?'
p1061
tp1062
Rp1063
tp1064
a(I1
g10
(g14
S'L\xbal`h\xb4\xe4?'
p1065
tp1066
Rp1067
tp1068
a(I1
g10
(g14
S'\xcdZ\xae[\x02\xb3\xe4?'
p1069
tp1070
Rp1071
tp1072
a(I1
g10
(g14
S'1\x83\x8bF\x8b\xae\xe4?'
p1073
tp1074
Rp1075
tp1076
a(I1
g10
(g14
S'\xb4\x05\x128=\xad\xe4?'
p1077
tp1078
Rp1079
tp1080
a(I1
g10
(g14
S'e\x0f\xb9\xda\xaa\x9c\xe4?'
p1081
tp1082
Rp1083
tp1084
a(I1
g10
(g14
S'\xb1\x12o\xd3+\x96\xe4?'
p1085
tp1086
Rp1087
tp1088
a(I1
g10
(g14
S'O\x17J{\x07\x95\xe4?'
p1089
tp1090
Rp1091
tp1092
a(I1
g10
(g14
S'n\x19\x9b\xed\xc1\x84\xe4?'
p1093
tp1094
Rp1095
tp1096
a(I1
g10
(g14
S'\xc05\xd3\xb3\xaf\x82\xe4?'
p1097
tp1098
Rp1099
tp1100
a(I1
g10
(g14
S'\x0c\xec\xdc\x8d(\x82\xe4?'
p1101
tp1102
Rp1103
tp1104
a(I1
g10
(g14
S'\x17\xcakXh~\xe4?'
p1105
tp1106
Rp1107
tp1108
a(I1
g10
(g14
S'\xedW\xa8H\xe7j\xe4?'
p1109
tp1110
Rp1111
tp1112
a(I1
g10
(g14
S'<c\xfej\x1dg\xe4?'
p1113
tp1114
Rp1115
tp1116
a(I1
g10
(g14
S'\xf8\xba\x19)\xcf]\xe4?'
p1117
tp1118
Rp1119
tp1120
a(I1
g10
(g14
S'clU7:U\xe4?'
p1121
tp1122
Rp1123
tp1124
a(I1
g10
(g14
S'aj#|[S\xe4?'
p1125
tp1126
Rp1127
tp1128
a(I1
g10
(g14
S'\xef\xc4y\xc2\xd4.\xe4?'
p1129
tp1130
Rp1131
tp1132
a(I1
g10
(g14
S'\xe9\x85_\xdd\xe4\x1d\xe4?'
p1133
tp1134
Rp1135
tp1136
a(I1
g10
(g14
S'\xc6\xb0J\x9a\x8a\x1d\xe4?'
p1137
tp1138
Rp1139
tp1140
a(I1
g10
(g14
S'\xd3\xaeA\x99S\x17\xe4?'
p1141
tp1142
Rp1143
tp1144
a(I1
g10
(g14
S'\xd8\xe6h\xaa\x11\x0f\xe4?'
p1145
tp1146
Rp1147
tp1148
a(I1
g10
(g14
S'\x1a\x9a\x1b\xe90\x06\xe4?'
p1149
tp1150
Rp1151
tp1152
a(I1
g10
(g14
S'\x1f\xc3,\xab\xbb\x04\xe4?'
p1153
tp1154
Rp1155
tp1156
a(I1
g10
(g14
S'2Z\x8e\xb9\x0f\xfe\xe3?'
p1157
tp1158
Rp1159
tp1160
a(I1
g10
(g14
S'\xa4\xf8\xc8g\xee\xf1\xe3?'
p1161
tp1162
Rp1163
tp1164
a(I1
g10
(g14
S'\xc2t>e\x00\xed\xe3?'
p1165
tp1166
Rp1167
tp1168
a(I0
g10
(g14
S'\xac\xa7\xfer1\xe3\xe3?'
p1169
tp1170
Rp1171
tp1172
a(I1
g10
(g14
S'\xce\xf5\xad\xb2:\xe0\xe3?'
p1173
tp1174
Rp1175
tp1176
a(I1
g10
(g14
S'\xf7Wkb\x10\xd8\xe3?'
p1177
tp1178
Rp1179
tp1180
a(I1
g10
(g14
S'\x03\x8f\\\x9e\x82\xd1\xe3?'
p1181
tp1182
Rp1183
tp1184
a(I1
g10
(g14
S'\xfd\x1f_C\x1c\xcb\xe3?'
p1185
tp1186
Rp1187
tp1188
a(I1
g10
(g14
S'\xa6vW\xefR\xc8\xe3?'
p1189
tp1190
Rp1191
tp1192
a(I1
g10
(g14
S'\xef!\xf2\xdd=\xc8\xe3?'
p1193
tp1194
Rp1195
tp1196
a(I1
g10
(g14
S'\x8aW_\x7f\xce\xc3\xe3?'
p1197
tp1198
Rp1199
tp1200
a(I0
g10
(g14
S'\xd6&\xc1\xfc+\xc0\xe3?'
p1201
tp1202
Rp1203
tp1204
a(I1
g10
(g14
S'\xf6\x93]\x1fe\xb9\xe3?'
p1205
tp1206
Rp1207
tp1208
a(I1
g10
(g14
S'-\x17\x98\xde\xf2\xb4\xe3?'
p1209
tp1210
Rp1211
tp1212
a(I1
g10
(g14
S'?>@\x9a\xc1\xaf\xe3?'
p1213
tp1214
Rp1215
tp1216
a(I1
g10
(g14
S'\xae\t,M\xe6\xad\xe3?'
p1217
tp1218
Rp1219
tp1220
a(I1
g10
(g14
S'G6Z\xcc!\xac\xe3?'
p1221
tp1222
Rp1223
tp1224
a(I1
g10
(g14
S'\x16%E<6\x97\xe3?'
p1225
tp1226
Rp1227
tp1228
a(I1
g10
(g14
S'\x02\x14<\xafv\x8e\xe3?'
p1229
tp1230
Rp1231
tp1232
a(I1
g10
(g14
S'v\x83\xdc0Q\x8e\xe3?'
p1233
tp1234
Rp1235
tp1236
a(I1
g10
(g14
S'\xa41\x87\x1c\x97\x88\xe3?'
p1237
tp1238
Rp1239
tp1240
a(I1
g10
(g14
S'\xfeqAK\xcc\x86\xe3?'
p1241
tp1242
Rp1243
tp1244
a(I1
g10
(g14
S'\x93\x05v\x1b\x85\x83\xe3?'
p1245
tp1246
Rp1247
tp1248
a(I1
g10
(g14
S'\xc6\xdb\xbef\x91|\xe3?'
p1249
tp1250
Rp1251
tp1252
a(I1
g10
(g14
S'\xb6\xe1+\xc5g|\xe3?'
p1253
tp1254
Rp1255
tp1256
a(I1
g10
(g14
S'\x07~\xde\x1d\xc0a\xe3?'
p1257
tp1258
Rp1259
tp1260
a(I1
g10
(g14
S',l\x9f\xf8S]\xe3?'
p1261
tp1262
Rp1263
tp1264
a(I1
g10
(g14
S'\x94s\x9b\xb7\x8cB\xe3?'
p1265
tp1266
Rp1267
tp1268
a(I1
g10
(g14
S'\x0fW\x95_\x82A\xe3?'
p1269
tp1270
Rp1271
tp1272
a(I1
g10
(g14
S'MR\x03\x01\xf8=\xe3?'
p1273
tp1274
Rp1275
tp1276
a(I1
g10
(g14
S'\xd1\xc6\xb38\xf77\xe3?'
p1277
tp1278
Rp1279
tp1280
a(I1
g10
(g14
S'6\xcf#V\x1e-\xe3?'
p1281
tp1282
Rp1283
tp1284
a(I1
g10
(g14
S'/@\xde\xef\xdb+\xe3?'
p1285
tp1286
Rp1287
tp1288
a(I1
g10
(g14
S'\xe8Y\x06\x85\xf7\x1d\xe3?'
p1289
tp1290
Rp1291
tp1292
a(I1
g10
(g14
S'\'"\xcb7\x15\x13\xe3?'
p1293
tp1294
Rp1295
tp1296
a(I1
g10
(g14
S'\xcd\xe0!3G\x08\xe3?'
p1297
tp1298
Rp1299
tp1300
a(I1
g10
(g14
S'\x042\xd4\x17d\x06\xe3?'
p1301
tp1302
Rp1303
tp1304
a(I1
g10
(g14
S'\xc6\xf2\xf3\x96n\xed\xe2?'
p1305
tp1306
Rp1307
tp1308
a(I1
g10
(g14
S'\xec\x02\x11\xdb\x1e\xe7\xe2?'
p1309
tp1310
Rp1311
tp1312
a(I1
g10
(g14
S'd\x03X2\x7f\xd1\xe2?'
p1313
tp1314
Rp1315
tp1316
a(I1
g10
(g14
S'\xb7\x04\x01\x12\x07\xd1\xe2?'
p1317
tp1318
Rp1319
tp1320
a(I1
g10
(g14
S'\xda\x9dv\x07\x8e\xc1\xe2?'
p1321
tp1322
Rp1323
tp1324
a(I1
g10
(g14
S'a\x0fx\xd4\xe0\xbd\xe2?'
p1325
tp1326
Rp1327
tp1328
a(I1
g10
(g14
S'\n\xe8\xdc\xaa\xeb\xa2\xe2?'
p1329
tp1330
Rp1331
tp1332
a(I1
g10
(g14
S'2\xabU\xae\xf2\x9a\xe2?'
p1333
tp1334
Rp1335
tp1336
a(I1
g10
(g14
S'a^\x05B\xd9\x99\xe2?'
p1337
tp1338
Rp1339
tp1340
a(I1
g10
(g14
S'_\x86\x08\x01H\x99\xe2?'
p1341
tp1342
Rp1343
tp1344
a(I1
g10
(g14
S'%\x1a\tv\x08\x8a\xe2?'
p1345
tp1346
Rp1347
tp1348
a(I0
g10
(g14
S'w\xdc\xce\xeb\xc8\x85\xe2?'
p1349
tp1350
Rp1351
tp1352
a(I1
g10
(g14
S'"\xcb\x18G\xae]\xe2?'
p1353
tp1354
Rp1355
tp1356
a(I1
g10
(g14
S'n\xacH`\\Z\xe2?'
p1357
tp1358
Rp1359
tp1360
a(I1
g10
(g14
S'p\x941\xce\xc6M\xe2?'
p1361
tp1362
Rp1363
tp1364
a(I1
g10
(g14
S'\r3\\P\x80\x1b\xe2?'
p1365
tp1366
Rp1367
tp1368
a(I1
g10
(g14
S':\xc9!\x11m\x12\xe2?'
p1369
tp1370
Rp1371
tp1372
a(I1
g10
(g14
S'\x94\xee\xb6 \xe7\x0e\xe2?'
p1373
tp1374
Rp1375
tp1376
a(I1
g10
(g14
S'\xd5\xc0\x1e\x02\xb1\xe9\xe1?'
p1377
tp1378
Rp1379
tp1380
a(I1
g10
(g14
S'\xe1V\x10r\xbc\xdf\xe1?'
p1381
tp1382
Rp1383
tp1384
a(I1
g10
(g14
S'h\xab\x9be\xba\xb9\xe1?'
p1385
tp1386
Rp1387
tp1388
a(I1
g10
(g14
S')\xb8\x03\x1a\xb6\x9d\xe1?'
p1389
tp1390
Rp1391
tp1392
a(I1
g10
(g14
S'\xf1y\np=e\xe1?'
p1393
tp1394
Rp1395
tp1396
a(I1
g10
(g14
S'c\xe7\xb7\x83\x1bP\xe1?'
p1397
tp1398
Rp1399
tp1400
a(I1
g10
(g14
S'\xea\xc1\xa7\xe4cN\xe1?'
p1401
tp1402
Rp1403
tp1404
a(I1
g10
(g14
S'f&\x80\xb7\x1bJ\xe1?'
p1405
tp1406
Rp1407
tp1408
a(I1
g10
(g14
S'$6p\x95zC\xe1?'
p1409
tp1410
Rp1411
tp1412
a(I1
g10
(g14
S'#~\x1c\xa5\xbaA\xe1?'
p1413
tp1414
Rp1415
tp1416
a(I1
g10
(g14
S'\xa1\x94\x8f\x92D!\xe1?'
p1417
tp1418
Rp1419
tp1420
a(I1
g10
(g14
S'\xed\xd0S\x99N\x17\xe1?'
p1421
tp1422
Rp1423
tp1424
a(I1
g10
(g14
S'\x8b\xe3l\xe6\xa8\x11\xe1?'
p1425
tp1426
Rp1427
tp1428
a(I1
g10
(g14
S'\xfcjcG\xfb\n\xe1?'
p1429
tp1430
Rp1431
tp1432
a(I1
g10
(g14
S'\xe8WF^5\xdf\xe0?'
p1433
tp1434
Rp1435
tp1436
a(I1
g10
(g14
S'1\xb1!\x80J\xd1\xe0?'
p1437
tp1438
Rp1439
tp1440
a(I1
g10
(g14
S'e\xe1H\xc5\x04\xc7\xe0?'
p1441
tp1442
Rp1443
tp1444
a(I0
g10
(g14
S'\xdb#\x13\xb1\xe9\xbd\xe0?'
p1445
tp1446
Rp1447
tp1448
a(I1
g10
(g14
S'\xd0j#\x91\x96\xae\xe0?'
p1449
tp1450
Rp1451
tp1452
a(I1
g10
(g14
S'\xcfT\x17\xa6\xf8\x87\xe0?'
p1453
tp1454
Rp1455
tp1456
a(I1
g10
(g14
S'o\x95\xeafms\xe0?'
p1457
tp1458
Rp1459
tp1460
a(I1
g10
(g14
S'D\xfbr\x91\x04e\xe0?'
p1461
tp1462
Rp1463
tp1464
a(I1
g10
(g14
S'\xeaV8%\xb2b\xe0?'
p1465
tp1466
Rp1467
tp1468
a(I1
g10
(g14
S'\x1f\r\xd6\x07\xb0a\xe0?'
p1469
tp1470
Rp1471
tp1472
a(I1
g10
(g14
S'\xa9\xb9\xa0\xd00!\xe0?'
p1473
tp1474
Rp1475
tp1476
a(I1
g10
(g14
S'\x8a\xa4a7\x86\x14\xe0?'
p1477
tp1478
Rp1479
tp1480
a(I1
g10
(g14
S';S\x7f\x94i\xf7\xdf?'
p1481
tp1482
Rp1483
tp1484
a(I1
g10
(g14
S'\x00\x88&\x9f\xd0\xec\xdf?'
p1485
tp1486
Rp1487
tp1488
a(I1
g10
(g14
S'Ex\x1duh\xe8\xdf?'
p1489
tp1490
Rp1491
tp1492
a(I0
g10
(g14
S'\xc4\x19\xe6\x1f\x8e\xb7\xdf?'
p1493
tp1494
Rp1495
tp1496
a(I0
g10
(g14
S'\x1aQA\x9dW\x84\xdf?'
p1497
tp1498
Rp1499
tp1500
a(I1
g10
(g14
S'\xef\xa3\x8c\x1c\x94W\xdf?'
p1501
tp1502
Rp1503
tp1504
a(I1
g10
(g14
S'\xf3\x13\x89\x90w@\xdf?'
p1505
tp1506
Rp1507
tp1508
a(I0
g10
(g14
S'v\x96\xb5}\xbe,\xdf?'
p1509
tp1510
Rp1511
tp1512
a(I0
g10
(g14
S'\xf4`\xfd\x11\x96!\xdf?'
p1513
tp1514
Rp1515
tp1516
a(I0
g10
(g14
S'\xc3\x1f\x84\xdcF\x16\xdf?'
p1517
tp1518
Rp1519
tp1520
a(I1
g10
(g14
S'<,c4\xbb\xed\xde?'
p1521
tp1522
Rp1523
tp1524
a(I1
g10
(g14
S'\xe3S\xd4t\x16\xca\xde?'
p1525
tp1526
Rp1527
tp1528
a(I1
g10
(g14
S'\xb6\xf9\xc7E\xbc\xbd\xde?'
p1529
tp1530
Rp1531
tp1532
a(I0
g10
(g14
S'\x9c%\x87\x83\xb0l\xde?'
p1533
tp1534
Rp1535
tp1536
a(I1
g10
(g14
S'EC.\xb0]K\xde?'
p1537
tp1538
Rp1539
tp1540
a(I1
g10
(g14
S'\x1bj\xf8,\x05$\xde?'
p1541
tp1542
Rp1543
tp1544
a(I1
g10
(g14
S'\x8f\xf9\xcb3O\x18\xde?'
p1545
tp1546
Rp1547
tp1548
a(I1
g10
(g14
S'\x92k)\xa0\x1f\x07\xde?'
p1549
tp1550
Rp1551
tp1552
a(I1
g10
(g14
S'\x9f\x81m\xdb\xa4\xf6\xdd?'
p1553
tp1554
Rp1555
tp1556
a(I1
g10
(g14
S'\\\x01\x95~|l\xdd?'
p1557
tp1558
Rp1559
tp1560
a(I0
g10
(g14
S'xL\x1c,\rH\xdd?'
p1561
tp1562
Rp1563
tp1564
a(I0
g10
(g14
S'\x92\xfc\xeb\x15\xe8=\xdd?'
p1565
tp1566
Rp1567
tp1568
a(I0
g10
(g14
S'[lii\xa9;\xdd?'
p1569
tp1570
Rp1571
tp1572
a(I0
g10
(g14
S'\x91\x11F\x10\xf0\x11\xdd?'
p1573
tp1574
Rp1575
tp1576
a(I1
g10
(g14
S'\x94\x8c\xfa|/\x86\xdc?'
p1577
tp1578
Rp1579
tp1580
a(I0
g10
(g14
S'\xedZ#\xf0\xd3m\xdc?'
p1581
tp1582
Rp1583
tp1584
a(I1
g10
(g14
S'\xf1\x87+\xf56X\xdc?'
p1585
tp1586
Rp1587
tp1588
a(I1
g10
(g14
S'\xa5e\xf9\x19\xd3O\xdc?'
p1589
tp1590
Rp1591
tp1592
a(I1
g10
(g14
S'\xf1\xe2u\x1a\xfb\x01\xdc?'
p1593
tp1594
Rp1595
tp1596
a(I0
g10
(g14
S'/\xf8\xe5\x1ae\x8f\xdb?'
p1597
tp1598
Rp1599
tp1600
a(I1
g10
(g14
S'\xc1x)\xec\xdb\x81\xdb?'
p1601
tp1602
Rp1603
tp1604
a(I1
g10
(g14
S'\xbf?\x0b<\xd0N\xdb?'
p1605
tp1606
Rp1607
tp1608
a(I1
g10
(g14
S'jL\xeb\x80\xdfA\xdb?'
p1609
tp1610
Rp1611
tp1612
a(I1
g10
(g14
S'7\x9d\xbb`\x14<\xdb?'
p1613
tp1614
Rp1615
tp1616
a(I1
g10
(g14
S'\x8c?&v\xe7;\xdb?'
p1617
tp1618
Rp1619
tp1620
a(I0
g10
(g14
S'?.1\xbd\xf1\x0b\xdb?'
p1621
tp1622
Rp1623
tp1624
a(I0
g10
(g14
S'(\x98a\xe1\x80\x04\xdb?'
p1625
tp1626
Rp1627
tp1628
a(I1
g10
(g14
S'N\\\xd6v\xbb\xb0\xda?'
p1629
tp1630
Rp1631
tp1632
a(I0
g10
(g14
S'\xecX\xa1\xd8\xbdu\xda?'
p1633
tp1634
Rp1635
tp1636
a(I0
g10
(g14
S'\xc35\x186"O\xda?'
p1637
tp1638
Rp1639
tp1640
a(I1
g10
(g14
S'\xb4\xea\xe5\xb9H?\xda?'
p1641
tp1642
Rp1643
tp1644
a(I1
g10
(g14
S'\x04\x9e\xe8u\xee\x0e\xda?'
p1645
tp1646
Rp1647
tp1648
a(I1
g10
(g14
S'\xba\xa8\xc2\x1b\x96\xde\xd9?'
p1649
tp1650
Rp1651
tp1652
a(I0
g10
(g14
S'6^\xd5U\xc8\xcf\xd9?'
p1653
tp1654
Rp1655
tp1656
a(I0
g10
(g14
S',\x9bD\xd2\xba\xae\xd9?'
p1657
tp1658
Rp1659
tp1660
a(I0
g10
(g14
S'\x1d\xe9_\xc2\xeb\x99\xd9?'
p1661
tp1662
Rp1663
tp1664
a(I1
g10
(g14
S'\xbcT\xcc7\x84k\xd9?'
p1665
tp1666
Rp1667
tp1668
a(I1
g10
(g14
S'\xce\x8b\x9d2\x91_\xd9?'
p1669
tp1670
Rp1671
tp1672
a(I0
g10
(g14
S'\x88U\x86#\x9eL\xd9?'
p1673
tp1674
Rp1675
tp1676
a(I1
g10
(g14
S'\x97e\xc5\x1al\x08\xd9?'
p1677
tp1678
Rp1679
tp1680
a(I0
g10
(g14
S'\xcd\x12\xc5\x1c\xcb\xe3\xd8?'
p1681
tp1682
Rp1683
tp1684
a(I1
g10
(g14
S'n%\xc0\xac\x14\xa6\xd8?'
p1685
tp1686
Rp1687
tp1688
a(I1
g10
(g14
S'\x9f\xb1\xef`Y\x90\xd8?'
p1689
tp1690
Rp1691
tp1692
a(I1
g10
(g14
S'\x0e\xff\xee%Ar\xd8?'
p1693
tp1694
Rp1695
tp1696
a(I0
g10
(g14
S'x)\xd5\xab)q\xd8?'
p1697
tp1698
Rp1699
tp1700
a(I0
g10
(g14
S'E\x18\x1fY\xc6f\xd8?'
p1701
tp1702
Rp1703
tp1704
a(I0
g10
(g14
S'\xf6u\x9e\xf8)U\xd8?'
p1705
tp1706
Rp1707
tp1708
a(I0
g10
(g14
S'\xc3\xd2\x98M\x1cD\xd8?'
p1709
tp1710
Rp1711
tp1712
a(I1
g10
(g14
S';\xa6\xb7q$(\xd8?'
p1713
tp1714
Rp1715
tp1716
a(I0
g10
(g14
S'\xc5Q\x96\xff\xe2"\xd8?'
p1717
tp1718
Rp1719
tp1720
a(I0
g10
(g14
S't\x9a-\x93\x1f\x19\xd8?'
p1721
tp1722
Rp1723
tp1724
a(I1
g10
(g14
S'\xd4\xc4\xb1\xb8\xd3\x01\xd8?'
p1725
tp1726
Rp1727
tp1728
a(I0
g10
(g14
S'\xb4\xa7\xd35\xe4\xf8\xd7?'
p1729
tp1730
Rp1731
tp1732
a(I1
g10
(g14
S'\x1a\xb6!uE\xe4\xd7?'
p1733
tp1734
Rp1735
tp1736
a(I0
g10
(g14
S'nI\xa7\xc97\xcf\xd7?'
p1737
tp1738
Rp1739
tp1740
a(I0
g10
(g14
S'\xdb\xfd\x046\xa8\xb8\xd7?'
p1741
tp1742
Rp1743
tp1744
a(I0
g10
(g14
S'Z\xd1\xa6\xf9\xad\xa8\xd7?'
p1745
tp1746
Rp1747
tp1748
a(I1
g10
(g14
S'N\xcaHQ(\xa2\xd7?'
p1749
tp1750
Rp1751
tp1752
a(I1
g10
(g14
S'Z@p;\xbb\x84\xd7?'
p1753
tp1754
Rp1755
tp1756
a(I0
g10
(g14
S'\x83\x19;\xa8\xfc\x7f\xd7?'
p1757
tp1758
Rp1759
tp1760
a(I1
g10
(g14
S"\x8d,'\xda8d\xd7?"
p1761
tp1762
Rp1763
tp1764
a(I0
g10
(g14
S'\xd6\xd4X2d\x1b\xd7?'
p1765
tp1766
Rp1767
tp1768
a(I1
g10
(g14
S'\xaa3\x99\x99g\x15\xd7?'
p1769
tp1770
Rp1771
tp1772
a(I0
g10
(g14
S'\xef\nk\xf8\xfc\xff\xd6?'
p1773
tp1774
Rp1775
tp1776
a(I0
g10
(g14
S's\x02z\xa8\xff\xca\xd6?'
p1777
tp1778
Rp1779
tp1780
a(I0
g10
(g14
S'\xb2!\x82\xaa\xc8\xb2\xd6?'
p1781
tp1782
Rp1783
tp1784
a(I1
g10
(g14
S'`\\\x05*\x95\x96\xd6?'
p1785
tp1786
Rp1787
tp1788
a(I1
g10
(g14
S'\xdc\xady|\xc0]\xd6?'
p1789
tp1790
Rp1791
tp1792
a(I0
g10
(g14
S'\xb8\xd3\xab\x11\x99P\xd6?'
p1793
tp1794
Rp1795
tp1796
a(I1
g10
(g14
S'4\xa4\xd8\xe6\x11\xf2\xd5?'
p1797
tp1798
Rp1799
tp1800
a(I0
g10
(g14
S'\xa3\xb1\xc4R\xa8\xd2\xd5?'
p1801
tp1802
Rp1803
tp1804
a(I0
g10
(g14
S'F\x93 {\n\xc8\xd5?'
p1805
tp1806
Rp1807
tp1808
a(I0
g10
(g14
S'\xf8\xe1\xa1Z\xcf\xbd\xd5?'
p1809
tp1810
Rp1811
tp1812
a(I0
g10
(g14
S'n\x1bt-}a\xd5?'
p1813
tp1814
Rp1815
tp1816
a(I0
g10
(g14
S'\xe9X\x0f{\xaf@\xd5?'
p1817
tp1818
Rp1819
tp1820
a(I0
g10
(g14
S'\xca\x9d\x89\x13\x7f\x04\xd5?'
p1821
tp1822
Rp1823
tp1824
a(I0
g10
(g14
S's"\xd7\x83<\xe3\xd4?'
p1825
tp1826
Rp1827
tp1828
a(I1
g10
(g14
S'Z\xf0\x93\x1c\xb0\xda\xd4?'
p1829
tp1830
Rp1831
tp1832
a(I0
g10
(g14
S'6U:~Q\xa6\xd4?'
p1833
tp1834
Rp1835
tp1836
a(I0
g10
(g14
S'\x9bk}\x9ak}\xd4?'
p1837
tp1838
Rp1839
tp1840
a(I0
g10
(g14
S'\xe4\x85\xd5&h\\\xd4?'
p1841
tp1842
Rp1843
tp1844
a(I0
g10
(g14
S'Ea\x93\xaa\\A\xd4?'
p1845
tp1846
Rp1847
tp1848
a(I0
g10
(g14
S'\x8f\x05mk\x077\xd4?'
p1849
tp1850
Rp1851
tp1852
a(I0
g10
(g14
S'\xe6\xd3\xa3\xbeA2\xd4?'
p1853
tp1854
Rp1855
tp1856
a(I0
g10
(g14
S'\x93\x0bh\xee\xb5\x1b\xd4?'
p1857
tp1858
Rp1859
tp1860
a(I0
g10
(g14
S'\x894\x1a\xa8\xb9\x05\xd4?'
p1861
tp1862
Rp1863
tp1864
a(I0
g10
(g14
S'L\xf7\xc1^\xc0\xfa\xd3?'
p1865
tp1866
Rp1867
tp1868
a(I0
g10
(g14
S'\xbdj,\x19\xb1\xf0\xd3?'
p1869
tp1870
Rp1871
tp1872
a(I1
g10
(g14
S'D\x1dk\x9c3\xe3\xd3?'
p1873
tp1874
Rp1875
tp1876
a(I0
g10
(g14
S'\xe3\x08\x1d\xe6i\xc1\xd3?'
p1877
tp1878
Rp1879
tp1880
a(I0
g10
(g14
S'\xd9\xc7\x99[\x04\xbf\xd3?'
p1881
tp1882
Rp1883
tp1884
a(I0
g10
(g14
S'@\xc5\xfb\xa9\xa4\xac\xd3?'
p1885
tp1886
Rp1887
tp1888
a(I0
g10
(g14
S'\xf6b\x84\x96?\x86\xd3?'
p1889
tp1890
Rp1891
tp1892
a(I0
g10
(g14
S'T\x06AW\x9a|\xd3?'
p1893
tp1894
Rp1895
tp1896
a(I0
g10
(g14
S'q\xf5\xde\x89\x1cq\xd3?'
p1897
tp1898
Rp1899
tp1900
a(I1
g10
(g14
S'\x9f\xad\xbfS\x97n\xd3?'
p1901
tp1902
Rp1903
tp1904
a(I0
g10
(g14
S'\xd1\xc9\x9f\xab\xe6Z\xd3?'
p1905
tp1906
Rp1907
tp1908
a(I0
g10
(g14
S'\n8?\x92\xbcV\xd3?'
p1909
tp1910
Rp1911
tp1912
a(I0
g10
(g14
S'F$\xca\xaf\x08\x05\xd3?'
p1913
tp1914
Rp1915
tp1916
a(I0
g10
(g14
S'\x8c\xdc\x9e\xac+\xa8\xd2?'
p1917
tp1918
Rp1919
tp1920
a(I0
g10
(g14
S'\x1a\x08\xbc\xc7O\x9d\xd2?'
p1921
tp1922
Rp1923
tp1924
a(I0
g10
(g14
S'\xc4\x84c\x95\xcaz\xd2?'
p1925
tp1926
Rp1927
tp1928
a(I1
g10
(g14
S'\x1f\x04\x9d\xbbLc\xd2?'
p1929
tp1930
Rp1931
tp1932
a(I0
g10
(g14
S'qW \x15\xc8]\xd2?'
p1933
tp1934
Rp1935
tp1936
a(I0
g10
(g14
S'\xab\xc3o\xf9\xe7R\xd2?'
p1937
tp1938
Rp1939
tp1940
a(I0
g10
(g14
S'I\xc6\x89d\x9cH\xd2?'
p1941
tp1942
Rp1943
tp1944
a(I0
g10
(g14
S'd\xe6_0j.\xd2?'
p1945
tp1946
Rp1947
tp1948
a(I0
g10
(g14
S'!\xf2zv\xb8+\xd2?'
p1949
tp1950
Rp1951
tp1952
a(I1
g10
(g14
S')b\x94Q\xbe#\xd2?'
p1953
tp1954
Rp1955
tp1956
a(I0
g10
(g14
S'3\xf8O\xcc\x91\xe9\xd1?'
p1957
tp1958
Rp1959
tp1960
a(I0
g10
(g14
S'\xff\xec<xR\xbe\xd1?'
p1961
tp1962
Rp1963
tp1964
a(I1
g10
(g14
S'\x18\xa3\x8di[\xac\xd1?'
p1965
tp1966
Rp1967
tp1968
a(I0
g10
(g14
S'\x8a\xf0V\xbd#\x8a\xd1?'
p1969
tp1970
Rp1971
tp1972
a(I0
g10
(g14
S'\x1c\xf7\xe2\xd3\x15h\xd1?'
p1973
tp1974
Rp1975
tp1976
a(I0
g10
(g14
S'\xf8\x9e\xa4\xa5\xaed\xd1?'
p1977
tp1978
Rp1979
tp1980
a(I1
g10
(g14
S'9\xff\\9\xff\\\xd1?'
p1981
tp1982
Rp1983
tp1984
a(I0
g10
(g14
S'\xb7V\x01\x1b\x0e;\xd1?'
p1985
tp1986
Rp1987
tp1988
a(I0
g10
(g14
S'\xa1\xdc8\x01\x007\xd1?'
p1989
tp1990
Rp1991
tp1992
a(I0
g10
(g14
S'q\x7f\x9c\x18L\xf4\xd0?'
p1993
tp1994
Rp1995
tp1996
a(I0
g10
(g14
S'=\r\xdd-\xbd\xee\xd0?'
p1997
tp1998
Rp1999
tp2000
a(I0
g10
(g14
S'\xdck1x\x86\xea\xd0?'
p2001
tp2002
Rp2003
tp2004
a(I0
g10
(g14
S'\x02\x96\xb8\x84\xd2\xdd\xd0?'
p2005
tp2006
Rp2007
tp2008
a(I0
g10
(g14
S'r\xc8q\x89@\xd7\xd0?'
p2009
tp2010
Rp2011
tp2012
a(I0
g10
(g14
S'+\xc7\x99.[\xd5\xd0?'
p2013
tp2014
Rp2015
tp2016
a(I0
g10
(g14
S'\xdf\xdf\xf1|\r\xc7\xd0?'
p2017
tp2018
Rp2019
tp2020
a(I0
g10
(g14
S'\xe0\x18\xf7\\\xf7\xc2\xd0?'
p2021
tp2022
Rp2023
tp2024
a(I0
g10
(g14
S'Au\xbd@u\xbd\xd0?'
p2025
tp2026
Rp2027
tp2028
a(I0
g10
(g14
S'\xba\x10d<M\x89\xd0?'
p2029
tp2030
Rp2031
tp2032
a(I0
g10
(g14
S'\xeaRh\xfbQ\x83\xd0?'
p2033
tp2034
Rp2035
tp2036
a(I0
g10
(g14
S'\xc3-\x158\xe4i\xd0?'
p2037
tp2038
Rp2039
tp2040
a(I0
g10
(g14
S'G\\?\nRh\xd0?'
p2041
tp2042
Rp2043
tp2044
a(I1
g10
(g14
S'\xa1\xa7 \x95\x06_\xd0?'
p2045
tp2046
Rp2047
tp2048
a(I0
g10
(g14
S'=4\xad\xcd\xc5J\xd0?'
p2049
tp2050
Rp2051
tp2052
a(I0
g10
(g14
S'\xaaw\xc3Q|<\xd0?'
p2053
tp2054
Rp2055
tp2056
a(I0
g10
(g14
S'8\x95+\xb7\xbe4\xd0?'
p2057
tp2058
Rp2059
tp2060
a(I0
g10
(g14
S'&y\xd4\xca\xce \xd0?'
p2061
tp2062
Rp2063
tp2064
a(I0
g10
(g14
S'V8)\x04\x80\n\xd0?'
p2065
tp2066
Rp2067
tp2068
a(I0
g10
(g14
S'\x98dj\xdf\x98\xf7\xcf?'
p2069
tp2070
Rp2071
tp2072
a(I0
g10
(g14
S'a\xa37{.\xb9\xcf?'
p2073
tp2074
Rp2075
tp2076
a(I0
g10
(g14
S'N\xbbZ\xe6\xc0\xb8\xcf?'
p2077
tp2078
Rp2079
tp2080
a(I0
g10
(g14
S'\xae\xae-\x84R\x9e\xcf?'
p2081
tp2082
Rp2083
tp2084
a(I0
g10
(g14
S'\xad\xf6\xe7\x05\xd7}\xcf?'
p2085
tp2086
Rp2087
tp2088
a(I0
g10
(g14
S'i\x03\x9d6\xd0i\xcf?'
p2089
tp2090
Rp2091
tp2092
a(I0
g10
(g14
S'\xe1\x0f4#\x93U\xcf?'
p2093
tp2094
Rp2095
tp2096
a(I0
g10
(g14
S'\x1a\x8e]&\xf9<\xcf?'
p2097
tp2098
Rp2099
tp2100
a(I0
g10
(g14
S'\xa9{ \xe8>8\xcf?'
p2101
tp2102
Rp2103
tp2104
a(I0
g10
(g14
S'(T\xb2}\xd6\xee\xce?'
p2105
tp2106
Rp2107
tp2108
a(I0
g10
(g14
S'\x92BBKF\xd6\xce?'
p2109
tp2110
Rp2111
tp2112
a(I0
g10
(g14
S'a\rg\xc9\xbc\xcb\xce?'
p2113
tp2114
Rp2115
tp2116
a(I0
g10
(g14
S'2Ez6\xd9\xb5\xce?'
p2117
tp2118
Rp2119
tp2120
a(I0
g10
(g14
S'\x8f/M\xa9\xa7\xb2\xce?'
p2121
tp2122
Rp2123
tp2124
a(I0
g10
(g14
S'\x9c\x8f\xe7\xa7K\x9a\xce?'
p2125
tp2126
Rp2127
tp2128
a(I0
g10
(g14
S',\xe4h;\x19f\xce?'
p2129
tp2130
Rp2131
tp2132
a(I0
g10
(g14
S'\xbc>.[\xefa\xce?'
p2133
tp2134
Rp2135
tp2136
a(I0
g10
(g14
S'j-^j-^\xce?'
p2137
tp2138
Rp2139
tp2140
a(I0
g10
(g14
S'\xf1\xf3\xef\xf5l:\xce?'
p2141
tp2142
Rp2143
tp2144
a(I0
g10
(g14
S'x\x03F\xdc\x80\x1f\xce?'
p2145
tp2146
Rp2147
tp2148
a(I0
g10
(g14
S'\xe3G\xdd\xa7"\x15\xce?'
p2149
tp2150
Rp2151
tp2152
a(I1
g10
(g14
S"\xf2\x1ax\xfb'\xfe\xcd?"
p2153
tp2154
Rp2155
tp2156
a(I0
g10
(g14
S'OI\xd8@\x14\xdb\xcd?'
p2157
tp2158
Rp2159
tp2160
a(I0
g10
(g14
S'\xdd\x10s4]\xcd\xcd?'
p2161
tp2162
Rp2163
tp2164
a(I1
g10
(g14
S'\x93\x1f\xec\x11\xe3\xc6\xcd?'
p2165
tp2166
Rp2167
tp2168
a(I1
g10
(g14
S'\xefp!\xa8\xe2\xb8\xcd?'
p2169
tp2170
Rp2171
tp2172
a(I0
g10
(g14
S'.V\\\x82\xbd\xa7\xcd?'
p2173
tp2174
Rp2175
tp2176
a(I0
g10
(g14
S'\x1a~3\xf0!\xa4\xcd?'
p2177
tp2178
Rp2179
tp2180
a(I0
g10
(g14
S'6U\x98\xb7\xc7\x9f\xcd?'
p2181
tp2182
Rp2183
tp2184
a(I1
g10
(g14
S'\xa5\xa9\xa3,_\x13\xcd?'
p2185
tp2186
Rp2187
tp2188
a(I0
g10
(g14
S'\x1b\xec\xff\x9a\xcc\n\xcd?'
p2189
tp2190
Rp2191
tp2192
a(I0
g10
(g14
S'&/R\xf2L\xf2\xcc?'
p2193
tp2194
Rp2195
tp2196
a(I0
g10
(g14
S'\x96R\xaf\xc5\xbb\xc4\xcc?'
p2197
tp2198
Rp2199
tp2200
a(I0
g10
(g14
S'\x0e\x93~\xd0\x88\xa7\xcc?'
p2201
tp2202
Rp2203
tp2204
a(I0
g10
(g14
S'\xd7A\xb8V\xea\xa1\xcc?'
p2205
tp2206
Rp2207
tp2208
a(I0
g10
(g14
S'I}\xa7u\xa5\x93\xcc?'
p2209
tp2210
Rp2211
tp2212
a(I0
g10
(g14
S'=/\x90K\x7f~\xcc?'
p2213
tp2214
Rp2215
tp2216
a(I0
g10
(g14
S'\xdb\x0cg\xde\xfa}\xcc?'
p2217
tp2218
Rp2219
tp2220
a(I0
g10
(g14
S'$P/94Y\xcc?'
p2221
tp2222
Rp2223
tp2224
a(I0
g10
(g14
S'\xfd\xe8X\\\x0cW\xcc?'
p2225
tp2226
Rp2227
tp2228
a(I1
g10
(g14
S'Sd\xb4\xcc\xaeD\xcc?'
p2229
tp2230
Rp2231
tp2232
a(I0
g10
(g14
S'\xf8\xcdT\x03\x8a\x07\xcc?'
p2233
tp2234
Rp2235
tp2236
a(I0
g10
(g14
S'\t\xb655\xa6\x00\xcc?'
p2237
tp2238
Rp2239
tp2240
a(I0
g10
(g14
S'fK\x97\xdc\xe6\xfa\xcb?'
p2241
tp2242
Rp2243
tp2244
a(I0
g10
(g14
S'\x0f\xb7:u\x1d\xa1\xcb?'
p2245
tp2246
Rp2247
tp2248
a(I0
g10
(g14
S'\x06\x03\xf20)\x9f\xcb?'
p2249
tp2250
Rp2251
tp2252
a(I0
g10
(g14
S'\xe8s\xcbr\xa2\x85\xcb?'
p2253
tp2254
Rp2255
tp2256
a(I0
g10
(g14
S'\xf2\x17\xb1M\x15w\xcb?'
p2257
tp2258
Rp2259
tp2260
a(I0
g10
(g14
S'E\xf22\x96\xc5B\xcb?'
p2261
tp2262
Rp2263
tp2264
a(I0
g10
(g14
S'\xa8\x1f\x9aA\xb93\xcb?'
p2265
tp2266
Rp2267
tp2268
a(I0
g10
(g14
S"hEg#\xf8'\xcb?"
p2269
tp2270
Rp2271
tp2272
a(I0
g10
(g14
S'\x1c\x0e\xf9\xedS\x10\xcb?'
p2273
tp2274
Rp2275
tp2276
a(I1
g10
(g14
S'\x97\x07e\xa2\xde\x08\xcb?'
p2277
tp2278
Rp2279
tp2280
a(I0
g10
(g14
S'\x9aR\x12\xc8\x0c\xfb\xca?'
p2281
tp2282
Rp2283
tp2284
a(I0
g10
(g14
S'H31\x92\xde\xc9\xca?'
p2285
tp2286
Rp2287
tp2288
a(I0
g10
(g14
S'\x9d\x80_D\xa0\xc9\xca?'
p2289
tp2290
Rp2291
tp2292
a(I0
g10
(g14
S'\xf4\x17uz\x03\xc7\xca?'
p2293
tp2294
Rp2295
tp2296
a(I0
g10
(g14
S'\xca\xcc\xf1\xe4\xa2\xb0\xca?'
p2297
tp2298
Rp2299
tp2300
a(I0
g10
(g14
S'\xe8\xd1\xc2\x04W\xae\xca?'
p2301
tp2302
Rp2303
tp2304
a(I0
g10
(g14
S'X\xf54\x00\xfa\xad\xca?'
p2305
tp2306
Rp2307
tp2308
a(I0
g10
(g14
S'):7\x81k\xa0\xca?'
p2309
tp2310
Rp2311
tp2312
a(I0
g10
(g14
S'\x1f\xc0\xce\xb8Yh\xca?'
p2313
tp2314
Rp2315
tp2316
a(I0
g10
(g14
S'`\x804\x02\x0cc\xca?'
p2317
tp2318
Rp2319
tp2320
a(I0
g10
(g14
S'\xf2\x1eZ\x81\xc6^\xca?'
p2321
tp2322
Rp2323
tp2324
a(I0
g10
(g14
S'\x84\xe0\x9f\xcdUV\xca?'
p2325
tp2326
Rp2327
tp2328
a(I0
g10
(g14
S'?\x83\x1d`\x9cD\xca?'
p2329
tp2330
Rp2331
tp2332
a(I0
g10
(g14
S'\xec:\xdcoy@\xca?'
p2333
tp2334
Rp2335
tp2336
a(I0
g10
(g14
S'I=\xa1\xe0\xd6:\xca?'
p2337
tp2338
Rp2339
tp2340
a(I0
g10
(g14
S'\xbc\t\xcf#p5\xca?'
p2341
tp2342
Rp2343
tp2344
a(I0
g10
(g14
S'\r#\x8bw\x1d-\xca?'
p2345
tp2346
Rp2347
tp2348
a(I0
g10
(g14
S'\xce\x07\xb03n\x16\xca?'
p2349
tp2350
Rp2351
tp2352
a(I0
g10
(g14
S'W\xb3f\x81b\x08\xca?'
p2353
tp2354
Rp2355
tp2356
a(I0
g10
(g14
S'{[\xd6\xea\x98\xe0\xc9?'
p2357
tp2358
Rp2359
tp2360
a(I0
g10
(g14
S'\x1c\xb08R\x92\x98\xc9?'
p2361
tp2362
Rp2363
tp2364
a(I0
g10
(g14
S'\xb21B\xb5\xc5}\xc9?'
p2365
tp2366
Rp2367
tp2368
a(I0
g10
(g14
S'\t\xfd]\xd8]f\xc9?'
p2369
tp2370
Rp2371
tp2372
a(I0
g10
(g14
S"\xc3'1EIe\xc9?"
p2373
tp2374
Rp2375
tp2376
a(I0
g10
(g14
S'\tvu\x18\xc6c\xc9?'
p2377
tp2378
Rp2379
tp2380
a(I0
g10
(g14
S'\xba\xb7\x06](D\xc9?'
p2381
tp2382
Rp2383
tp2384
a(I0
g10
(g14
S'\x8c\x10\xfdlp \xc9?'
p2385
tp2386
Rp2387
tp2388
a(I0
g10
(g14
S'\xc90\xf6\xeaI\x1d\xc9?'
p2389
tp2390
Rp2391
tp2392
a(I0
g10
(g14
S'\nhM\xa3\x01\xe7\xc8?'
p2393
tp2394
Rp2395
tp2396
a(I0
g10
(g14
S'j\xb7\xc6Y\x9d\xba\xc8?'
p2397
tp2398
Rp2399
tp2400
a(I0
g10
(g14
S'\xee\x91\x04\xe9\x18\xba\xc8?'
p2401
tp2402
Rp2403
tp2404
a(I0
g10
(g14
S'j\xdb\x18#\xfa\x9d\xc8?'
p2405
tp2406
Rp2407
tp2408
a(I0
g10
(g14
S'\xb3\x85cE\xdc\x94\xc8?'
p2409
tp2410
Rp2411
tp2412
a(I0
g10
(g14
S'\xf8P\xf1aK\x93\xc8?'
p2413
tp2414
Rp2415
tp2416
a(I0
g10
(g14
S'\xc1@h\x13\xf9\x86\xc8?'
p2417
tp2418
Rp2419
tp2420
a(I0
g10
(g14
S'\xc1`\x0fw\xb5v\xc8?'
p2421
tp2422
Rp2423
tp2424
a(I0
g10
(g14
S'\xdd\xcf]\x00\x04v\xc8?'
p2425
tp2426
Rp2427
tp2428
a(I0
g10
(g14
S'S\xb8\x1e\x85\xebQ\xc8?'
p2429
tp2430
Rp2431
tp2432
a(I0
g10
(g14
S'\x111\xba\x16\xd1H\xc8?'
p2433
tp2434
Rp2435
tp2436
a(I0
g10
(g14
S'\xaf\xa6p\xfd\xe5D\xc8?'
p2437
tp2438
Rp2439
tp2440
a(I0
g10
(g14
S'v?\xba\xac\xeb7\xc8?'
p2441
tp2442
Rp2443
tp2444
a(I0
g10
(g14
S'\xa51C\x8f\x83\xfb\xc7?'
p2445
tp2446
Rp2447
tp2448
a(I0
g10
(g14
S'\x92\x1b\xdc\x82\x01\xd0\xc7?'
p2449
tp2450
Rp2451
tp2452
a(I0
g10
(g14
S'$6\xa6EO\xcd\xc7?'
p2453
tp2454
Rp2455
tp2456
a(I0
g10
(g14
S'\xf1h\xf5\xbc5\xc2\xc7?'
p2457
tp2458
Rp2459
tp2460
a(I0
g10
(g14
S'\xa0\xe7\x03?\x9d\xc1\xc7?'
p2461
tp2462
Rp2463
tp2464
a(I0
g10
(g14
S'\x8e\xcaY\x93C\xa4\xc7?'
p2465
tp2466
Rp2467
tp2468
a(I0
g10
(g14
S'\x85\xe4+\xab\x91\x8e\xc7?'
p2469
tp2470
Rp2471
tp2472
a(I1
g10
(g14
S'w6B[`\x83\xc7?'
p2473
tp2474
Rp2475
tp2476
a(I0
g10
(g14
S'\xbf3\xeef8g\xc7?'
p2477
tp2478
Rp2479
tp2480
a(I0
g10
(g14
S'M\xa6$\x91\x0eU\xc7?'
p2481
tp2482
Rp2483
tp2484
a(I0
g10
(g14
S'\x86\x85c\xf4\xf8O\xc7?'
p2485
tp2486
Rp2487
tp2488
a(I0
g10
(g14
S'\xd1\xc2\xf1\x832J\xc7?'
p2489
tp2490
Rp2491
tp2492
a(I0
g10
(g14
S'\xca\xf1!)\x15 \xc7?'
p2493
tp2494
Rp2495
tp2496
a(I0
g10
(g14
S'\xdc\x99\x06l\\\xfc\xc6?'
p2497
tp2498
Rp2499
tp2500
a(I0
g10
(g14
S'/\xc3\x00\xbe\xbb\xd8\xc6?'
p2501
tp2502
Rp2503
tp2504
a(I0
g10
(g14
S'\xd3\x06:m\xa0\xd3\xc6?'
p2505
tp2506
Rp2507
tp2508
a(I0
g10
(g14
S'6\xe9\xd4\x94\x0c\xd3\xc6?'
p2509
tp2510
Rp2511
tp2512
a(I1
g10
(g14
S'\t\x19\xe8\x97\xf6\xce\xc6?'
p2513
tp2514
Rp2515
tp2516
a(I0
g10
(g14
S'\x81x\xa8\x82]\xb7\xc6?'
p2517
tp2518
Rp2519
tp2520
a(I0
g10
(g14
S'\x13\xe8\x9f\x83%\xaa\xc6?'
p2521
tp2522
Rp2523
tp2524
a(I1
g10
(g14
S'\x06\x0e\xd8s\xb7\xa6\xc6?'
p2525
tp2526
Rp2527
tp2528
a(I0
g10
(g14
S'x\x16\x7f\xecf\xa5\xc6?'
p2529
tp2530
Rp2531
tp2532
a(I0
g10
(g14
S'<\xc9G3L\x7f\xc6?'
p2533
tp2534
Rp2535
tp2536
a(I0
g10
(g14
S'm\x0b\xea\xd3qP\xc6?'
p2537
tp2538
Rp2539
tp2540
a(I0
g10
(g14
S'\x1cC\xf0R%P\xc6?'
p2541
tp2542
Rp2543
tp2544
a(I0
g10
(g14
S'\xa1\xcf\xef%\xbbA\xc6?'
p2545
tp2546
Rp2547
tp2548
a(I0
g10
(g14
S'j\xca\xd9\xcf0@\xc6?'
p2549
tp2550
Rp2551
tp2552
a(I0
g10
(g14
S'l\x81\xe2\x0f\xbc=\xc6?'
p2553
tp2554
Rp2555
tp2556
a(I0
g10
(g14
S'\x08VXb8-\xc6?'
p2557
tp2558
Rp2559
tp2560
a(I0
g10
(g14
S'\nD\xb1Q%,\xc6?'
p2561
tp2562
Rp2563
tp2564
a(I0
g10
(g14
S'\xa9\xf1\xd2Mb\x10\xc6?'
p2565
tp2566
Rp2567
tp2568
a(I1
g10
(g14
S'\xb8iirm\xfd\xc5?'
p2569
tp2570
Rp2571
tp2572
a(I0
g10
(g14
S'\x91\x1c\xce\x02$\xf6\xc5?'
p2573
tp2574
Rp2575
tp2576
a(I0
g10
(g14
S'\xba\xcc\xd6(@\xc3\xc5?'
p2577
tp2578
Rp2579
tp2580
a(I0
g10
(g14
S'\x94\x7fP\xcaF\xbf\xc5?'
p2581
tp2582
Rp2583
tp2584
a(I0
g10
(g14
S"\n<\xcc'\xdc\xa8\xc5?"
p2585
tp2586
Rp2587
tp2588
a(I0
g10
(g14
S'\xbf\x0f\xd1\xea\xff\x9b\xc5?'
p2589
tp2590
Rp2591
tp2592
a(I0
g10
(g14
S'\xe9?\xc5\x85m\x9a\xc5?'
p2593
tp2594
Rp2595
tp2596
a(I0
g10
(g14
S'\x96\xe9\xef/h\x98\xc5?'
p2597
tp2598
Rp2599
tp2600
a(I0
g10
(g14
S'\x115\xbb\xad}\x81\xc5?'
p2601
tp2602
Rp2603
tp2604
a(I0
g10
(g14
S'\xc3T\xe8y\x8e^\xc5?'
p2605
tp2606
Rp2607
tp2608
a(I0
g10
(g14
S'=\xba\x04TM[\xc5?'
p2609
tp2610
Rp2611
tp2612
a(I0
g10
(g14
S'\x8f\xa8\xf1\xf2_+\xc5?'
p2613
tp2614
Rp2615
tp2616
a(I0
g10
(g14
S'\xad\x8e\t\x1e\xcc\x13\xc5?'
p2617
tp2618
Rp2619
tp2620
a(I0
g10
(g14
S'H\xd3\x13y\xbb\t\xc5?'
p2621
tp2622
Rp2623
tp2624
a(I0
g10
(g14
S'\xcd\xd1/\x89i\xff\xc4?'
p2625
tp2626
Rp2627
tp2628
a(I0
g10
(g14
S'\xce\x94e\xb7e\xfe\xc4?'
p2629
tp2630
Rp2631
tp2632
a(I0
g10
(g14
S'Ah\x8d\xc8\x1d\xfd\xc4?'
p2633
tp2634
Rp2635
tp2636
a(I0
g10
(g14
S'\x1f\xb4\\h_\xf5\xc4?'
p2637
tp2638
Rp2639
tp2640
a(I0
g10
(g14
S'==M\xc6\xa1\xe9\xc4?'
p2641
tp2642
Rp2643
tp2644
a(I0
g10
(g14
S'l\x05\xaa\x9c]\xe2\xc4?'
p2645
tp2646
Rp2647
tp2648
a(I0
g10
(g14
S'3\x93\xe3\xf2\xd9\xdf\xc4?'
p2649
tp2650
Rp2651
tp2652
a(I0
g10
(g14
S'\xe9\x96\x8c\xbd\x8b\xd0\xc4?'
p2653
tp2654
Rp2655
tp2656
a(I0
g10
(g14
S'\x9c\xc3*\xe7\xb7\xc1\xc4?'
p2657
tp2658
Rp2659
tp2660
a(I0
g10
(g14
S'\xb6\x85\xb6\x12\xdf\x96\xc4?'
p2661
tp2662
Rp2663
tp2664
a(I0
g10
(g14
S'.\x8a\x13vk\x8e\xc4?'
p2665
tp2666
Rp2667
tp2668
a(I0
g10
(g14
S'\x03X[\x95\xae\x8c\xc4?'
p2669
tp2670
Rp2671
tp2672
a(I0
g10
(g14
S'\xeaqbJzo\xc4?'
p2673
tp2674
Rp2675
tp2676
a(I0
g10
(g14
S'\x81!\xc6\xa9}U\xc4?'
p2677
tp2678
Rp2679
tp2680
a(I0
g10
(g14
S'\xec\x0c\xf6\xb1\xb1K\xc4?'
p2681
tp2682
Rp2683
tp2684
a(I0
g10
(g14
S'G\x14\xe3\xebN>\xc4?'
p2685
tp2686
Rp2687
tp2688
a(I0
g10
(g14
S'<\x94\x8f\x16\xcc;\xc4?'
p2689
tp2690
Rp2691
tp2692
a(I0
g10
(g14
S'MvL[\xc6:\xc4?'
p2693
tp2694
Rp2695
tp2696
a(I0
g10
(g14
S'\x04\x0f\xe6\x89\xfa7\xc4?'
p2697
tp2698
Rp2699
tp2700
a(I0
g10
(g14
S'!\xc8iZ#\x14\xc4?'
p2701
tp2702
Rp2703
tp2704
a(I0
g10
(g14
S'\x1f>\xc3\xae\x00\xb9\xc3?'
p2705
tp2706
Rp2707
tp2708
a(I0
g10
(g14
S'g^8>\x02\xa9\xc3?'
p2709
tp2710
Rp2711
tp2712
a(I0
g10
(g14
S'2\xa1\xa0\x02\x02\xa9\xc3?'
p2713
tp2714
Rp2715
tp2716
a(I0
g10
(g14
S'A\xbb\xcf}\xc5\xa6\xc3?'
p2717
tp2718
Rp2719
tp2720
a(I0
g10
(g14
S'\x9f\xe5\xfcY\xce\x9f\xc3?'
p2721
tp2722
Rp2723
tp2724
a(I0
g10
(g14
S'\x94\x10\x8d\xc4\x94\x93\xc3?'
p2725
tp2726
Rp2727
tp2728
a(I1
g10
(g14
S'!V\xbbl\x03\x93\xc3?'
p2729
tp2730
Rp2731
tp2732
a(I0
g10
(g14
S'\xf4=\xadoo\x8b\xc3?'
p2733
tp2734
Rp2735
tp2736
a(I0
g10
(g14
S'Pys\x90<\x8b\xc3?'
p2737
tp2738
Rp2739
tp2740
a(I0
g10
(g14
S'Q$\x95@\n\x89\xc3?'
p2741
tp2742
Rp2743
tp2744
a(I0
g10
(g14
S'\xec\xa0\t\xe4\x93\x83\xc3?'
p2745
tp2746
Rp2747
tp2748
a(I0
g10
(g14
S'\x9b\x18\x8f\xda5\x82\xc3?'
p2749
tp2750
Rp2751
tp2752
a(I0
g10
(g14
S'm\xfd\xa4\xa9"m\xc3?'
p2753
tp2754
Rp2755
tp2756
a(I0
g10
(g14
S'\xf7\x9e\xe7>\x80b\xc3?'
p2757
tp2758
Rp2759
tp2760
a(I0
g10
(g14
S'\x07KoVTa\xc3?'
p2761
tp2762
Rp2763
tp2764
a(I0
g10
(g14
S'\x1c\x11\x1a\xaegK\xc3?'
p2765
tp2766
Rp2767
tp2768
a(I0
g10
(g14
S'\x11e\t\xb5\xd5F\xc3?'
p2769
tp2770
Rp2771
tp2772
a(I0
g10
(g14
S'F\x13\xe0\xacyF\xc3?'
p2773
tp2774
Rp2775
tp2776
a(I0
g10
(g14
S"\xbb\x8d\xa8U'B\xc3?"
p2777
tp2778
Rp2779
tp2780
a(I0
g10
(g14
S'\xbfP\x9bwo \xc3?'
p2781
tp2782
Rp2783
tp2784
a(I0
g10
(g14
S'\xf2D|\\?\x1e\xc3?'
p2785
tp2786
Rp2787
tp2788
a(I0
g10
(g14
S'\xb6>:\xc4\xa9\x19\xc3?'
p2789
tp2790
Rp2791
tp2792
a(I0
g10
(g14
S'\xda\x17\x0b\xaax\x13\xc3?'
p2793
tp2794
Rp2795
tp2796
a(I0
g10
(g14
S'f3g\x9f\xa9\x02\xc3?'
p2797
tp2798
Rp2799
tp2800
a(I0
g10
(g14
S'\xf4\xa1O~\xeb\xfa\xc2?'
p2801
tp2802
Rp2803
tp2804
a(I0
g10
(g14
S'\x87\x9d\xbd\xa8\t\xf7\xc2?'
p2805
tp2806
Rp2807
tp2808
a(I0
g10
(g14
S"\xac\x03E'\x18\xf3\xc2?"
p2809
tp2810
Rp2811
tp2812
a(I0
g10
(g14
S'c\x03|\xd7\xd4\xc1\xc2?'
p2813
tp2814
Rp2815
tp2816
a(I0
g10
(g14
S'\xb9w\x1es`\xc1\xc2?'
p2817
tp2818
Rp2819
tp2820
a(I0
g10
(g14
S'\xb4\xb2\xb8\x83\x13\xc1\xc2?'
p2821
tp2822
Rp2823
tp2824
a(I0
g10
(g14
S'\xa7\xde\xed`m\xb5\xc2?'
p2825
tp2826
Rp2827
tp2828
a(I0
g10
(g14
S'\t\x05\xe53+\x92\xc2?'
p2829
tp2830
Rp2831
tp2832
a(I0
g10
(g14
S'\x8a\x04Q\x1d[\x82\xc2?'
p2833
tp2834
Rp2835
tp2836
a(I0
g10
(g14
S'\x1c\xf0\xbb\xa7\x1ev\xc2?'
p2837
tp2838
Rp2839
tp2840
a(I0
g10
(g14
S'\xd1.\xeb\xe8pn\xc2?'
p2841
tp2842
Rp2843
tp2844
a(I0
g10
(g14
S'\xaf\xf5\xfcu\x7fa\xc2?'
p2845
tp2846
Rp2847
tp2848
a(I0
g10
(g14
S'}`5+\x8d%\xc2?'
p2849
tp2850
Rp2851
tp2852
a(I0
g10
(g14
S')/\xf1\x1a\xa9 \xc2?'
p2853
tp2854
Rp2855
tp2856
a(I0
g10
(g14
S'\xc1\x96\xd0\xa5\xa5 \xc2?'
p2857
tp2858
Rp2859
tp2860
a(I0
g10
(g14
S'K(\xad\xf1G\x17\xc2?'
p2861
tp2862
Rp2863
tp2864
a(I0
g10
(g14
S'\x1en\xc6\xef\xa2\x00\xc2?'
p2865
tp2866
Rp2867
tp2868
a(I0
g10
(g14
S'\xdcL\xa3!d\x00\xc2?'
p2869
tp2870
Rp2871
tp2872
a(I0
g10
(g14
S'\xb4\x8c\x84L\\\x00\xc2?'
p2873
tp2874
Rp2875
tp2876
a(I0
g10
(g14
S'\xfe\x89\xb8r[\xfe\xc1?'
p2877
tp2878
Rp2879
tp2880
a(I0
g10
(g14
S'\xd1\r\xb4\xe4\xbb\xfb\xc1?'
p2881
tp2882
Rp2883
tp2884
a(I0
g10
(g14
S'\xb4\x89\xcd&\x91\xf5\xc1?'
p2885
tp2886
Rp2887
tp2888
a(I0
g10
(g14
S'\xea[\xddZ\x99\xe7\xc1?'
p2889
tp2890
Rp2891
tp2892
a(I0
g10
(g14
S'i\x97|\xcf\xfd\xe2\xc1?'
p2893
tp2894
Rp2895
tp2896
a(I0
g10
(g14
S'sy\xaeD\xbf\xc5\xc1?'
p2897
tp2898
Rp2899
tp2900
a(I0
g10
(g14
S'\x1f\x1dN\xc5\xaa\xbb\xc1?'
p2901
tp2902
Rp2903
tp2904
a(I0
g10
(g14
S'a~t%>\xbb\xc1?'
p2905
tp2906
Rp2907
tp2908
a(I0
g10
(g14
S'\xa6S\x84\x98\xcd\xb3\xc1?'
p2909
tp2910
Rp2911
tp2912
a(I0
g10
(g14
S'\xb0\xf77\x17C\xad\xc1?'
p2913
tp2914
Rp2915
tp2916
a(I0
g10
(g14
S'\x05\xfd\xb6\xf4\xe2\xaa\xc1?'
p2917
tp2918
Rp2919
tp2920
a(I0
g10
(g14
S'=Q\xffF(\xa3\xc1?'
p2921
tp2922
Rp2923
tp2924
a(I0
g10
(g14
S'\x849\xd6?\xec\x96\xc1?'
p2925
tp2926
Rp2927
tp2928
a(I0
g10
(g14
S'6/9\xaa\x00\x7f\xc1?'
p2929
tp2930
Rp2931
tp2932
a(I0
g10
(g14
S'\xd6\xeb\xa8\xe0\xc2L\xc1?'
p2933
tp2934
Rp2935
tp2936
a(I0
g10
(g14
S'H\xe1z\x14\xaeG\xc1?'
p2937
tp2938
Rp2939
tp2940
a(I0
g10
(g14
S'NxGm\xfd2\xc1?'
p2941
tp2942
Rp2943
tp2944
a(I0
g10
(g14
S'|\xf2\x7f\xa6\x18-\xc1?'
p2945
tp2946
Rp2947
tp2948
a(I0
g10
(g14
S'z\xc9\xf3\xcb\x81\x12\xc1?'
p2949
tp2950
Rp2951
tp2952
a(I0
g10
(g14
S'\x0f\xadb\x89\xc1\x10\xc1?'
p2953
tp2954
Rp2955
tp2956
a(I0
g10
(g14
S'C\x0c\xa4\x99=\r\xc1?'
p2957
tp2958
Rp2959
tp2960
a(I0
g10
(g14
S'\x12\x1e\xfc\xb2\xdf\x0c\xc1?'
p2961
tp2962
Rp2963
tp2964
a(I0
g10
(g14
S'\xb4/?@C\x08\xc1?'
p2965
tp2966
Rp2967
tp2968
a(I0
g10
(g14
S']?\x9f\xc2\xc0\xf6\xc0?'
p2969
tp2970
Rp2971
tp2972
a(I0
g10
(g14
S'\xa1\xa1\xf7`\xe8\xf3\xc0?'
p2973
tp2974
Rp2975
tp2976
a(I0
g10
(g14
S'\xc6H\x06\x94\xdf\xf0\xc0?'
p2977
tp2978
Rp2979
tp2980
a(I0
g10
(g14
S'\x12\xe6\xa6\x85\xb7\xec\xc0?'
p2981
tp2982
Rp2983
tp2984
a(I0
g10
(g14
S'\x16\xa2+\x91\xb6\xd9\xc0?'
p2985
tp2986
Rp2987
tp2988
a(I0
g10
(g14
S'\xcc\xdc\xa7]3\xd9\xc0?'
p2989
tp2990
Rp2991
tp2992
a(I0
g10
(g14
S't\xd5\\+\x0f\xd3\xc0?'
p2993
tp2994
Rp2995
tp2996
a(I0
g10
(g14
S'\xf2YV*O\xd2\xc0?'
p2997
tp2998
Rp2999
tp3000
a(I0
g10
(g14
S'\xd3\xfeh\x89S\xd0\xc0?'
p3001
tp3002
Rp3003
tp3004
a(I0
g10
(g14
S'\x19\xf5\xa9\x9a1\xcf\xc0?'
p3005
tp3006
Rp3007
tp3008
a(I0
g10
(g14
S'\x1bj\xc0\x8b\xa7\xca\xc0?'
p3009
tp3010
Rp3011
tp3012
a(I0
g10
(g14
S'\xd7W \x91@\xc3\xc0?'
p3013
tp3014
Rp3015
tp3016
a(I0
g10
(g14
S'\xa4y\xc9\xe2M\xbe\xc0?'
p3017
tp3018
Rp3019
tp3020
a(I0
g10
(g14
S'\x1b\xf6\x93\x8d\xfd\xbb\xc0?'
p3021
tp3022
Rp3023
tp3024
a(I0
g10
(g14
S';\xfc{\xdel\xb9\xc0?'
p3025
tp3026
Rp3027
tp3028
a(I0
g10
(g14
S'\r\xa2(\xc5\xc0\xad\xc0?'
p3029
tp3030
Rp3031
tp3032
a(I0
g10
(g14
S'\xf6=\xe6\x90\x0f\xa1\xc0?'
p3033
tp3034
Rp3035
tp3036
a(I0
g10
(g14
S'\xd1\xaf{c!\x9e\xc0?'
p3037
tp3038
Rp3039
tp3040
a(I0
g10
(g14
S'\xc6\x80W\x99u\x9b\xc0?'
p3041
tp3042
Rp3043
tp3044
a(I0
g10
(g14
S'\xa8\x8e@\xfd\xda\x9a\xc0?'
p3045
tp3046
Rp3047
tp3048
a(I0
g10
(g14
S'f\xb7\xa7\xe4_\x91\xc0?'
p3049
tp3050
Rp3051
tp3052
a(I0
g10
(g14
S'Z\xe66`D\x90\xc0?'
p3053
tp3054
Rp3055
tp3056
a(I0
g10
(g14
S'\x8b@\xb0\x08\x04\x8b\xc0?'
p3057
tp3058
Rp3059
tp3060
a(I0
g10
(g14
S'\xcfF\xc79Ai\xc0?'
p3061
tp3062
Rp3063
tp3064
a(I0
g10
(g14
S'\xde\x1d\xe7c\xd3V\xc0?'
p3065
tp3066
Rp3067
tp3068
a(I0
g10
(g14
S'\xa2\x9f\xe2xCS\xc0?'
p3069
tp3070
Rp3071
tp3072
a(I0
g10
(g14
S'\xf2\x80\xc2y\x00P\xc0?'
p3073
tp3074
Rp3075
tp3076
a(I0
g10
(g14
S'(h\xd4\xfe\x0bE\xc0?'
p3077
tp3078
Rp3079
tp3080
a(I0
g10
(g14
S'\x0f\x88\x95z\xb0D\xc0?'
p3081
tp3082
Rp3083
tp3084
a(I0
g10
(g14
S'\xef"\xacH\x03B\xc0?'
p3085
tp3086
Rp3087
tp3088
a(I0
g10
(g14
S'\x7f\xe5"1\xc1?\xc0?'
p3089
tp3090
Rp3091
tp3092
a(I0
g10
(g14
S'T\xd1\x7f\x9fF6\xc0?'
p3093
tp3094
Rp3095
tp3096
a(I0
g10
(g14
S'ph\xda\x15\xa35\xc0?'
p3097
tp3098
Rp3099
tp3100
a(I0
g10
(g14
S'\xe1\xc0\xfb\xc1\x8e"\xc0?'
p3101
tp3102
Rp3103
tp3104
a(I0
g10
(g14
S'\x83\xc6*\xa2K\x16\xc0?'
p3105
tp3106
Rp3107
tp3108
a(I0
g10
(g14
S'\xcae\xfb\x9a\xab\x12\xc0?'
p3109
tp3110
Rp3111
tp3112
a(I0
g10
(g14
S'\xdd\x88\x02\r\r\t\xc0?'
p3113
tp3114
Rp3115
tp3116
a(I0
g10
(g14
S'\x00\x00\x00\x00\x00\x00\xc0?'
p3117
tp3118
Rp3119
tp3120
a(I0
g10
(g14
S'\r\x92\xeb\xfc\\\xee\xbf?'
p3121
tp3122
Rp3123
tp3124
a(I0
g10
(g14
S'E\x10\xfa4\xf6\xed\xbf?'
p3125
tp3126
Rp3127
tp3128
a(I0
g10
(g14
S'\x017\xccR\xef\xea\xbf?'
p3129
tp3130
Rp3131
tp3132
a(I0
g10
(g14
S'\xaeG\xe1z\x14\xae\xbf?'
p3133
tp3134
Rp3135
tp3136
a(I0
g10
(g14
S'\xd60e\xa6@\x9a\xbf?'
p3137
tp3138
Rp3139
tp3140
a(I0
g10
(g14
S'\xca \xa9\xdap\x97\xbf?'
p3141
tp3142
Rp3143
tp3144
a(I0
g10
(g14
S' l\xaf}\xfbq\xbf?'
p3145
tp3146
Rp3147
tp3148
a(I0
g10
(g14
S"\x98'\x8c\xa6\x92k\xbf?"
p3149
tp3150
Rp3151
tp3152
a(I0
g10
(g14
S'\x96\x7f\xa5@\x18Z\xbf?'
p3153
tp3154
Rp3155
tp3156
a(I0
g10
(g14
S'Lc\xc04\x06L\xbf?'
p3157
tp3158
Rp3159
tp3160
a(I0
g10
(g14
S'\xc9\xbeq\x07\xc9H\xbf?'
p3161
tp3162
Rp3163
tp3164
a(I0
g10
(g14
S'\xc5\x03\x84!\x93F\xbf?'
p3165
tp3166
Rp3167
tp3168
a(I0
g10
(g14
S'\x18\xbc^\x84e-\xbf?'
p3169
tp3170
Rp3171
tp3172
a(I0
g10
(g14
S'\xc1\x8a-0\x19\x0b\xbf?'
p3173
tp3174
Rp3175
tp3176
a(I0
g10
(g14
S'FfH\xb0E\xf9\xbe?'
p3177
tp3178
Rp3179
tp3180
a(I0
g10
(g14
S')J[\x10\xed\xe6\xbe?'
p3181
tp3182
Rp3183
tp3184
a(I0
g10
(g14
S'\xbb\xcf/\x15\x95\xd4\xbe?'
p3185
tp3186
Rp3187
tp3188
a(I0
g10
(g14
S'3V \\\xb2\xaf\xbe?'
p3189
tp3190
Rp3191
tp3192
a(I0
g10
(g14
S'\x7f\xa0\xd6k\xf2\x8e\xbe?'
p3193
tp3194
Rp3195
tp3196
a(I0
g10
(g14
S'&?\xeb\x0b\xa3\x8c\xbe?'
p3197
tp3198
Rp3199
tp3200
a(I0
g10
(g14
S'\xb6\x19M\x18\xecw\xbe?'
p3201
tp3202
Rp3203
tp3204
a(I0
g10
(g14
S'\xb7\xd7Z\xc9\xd6u\xbe?'
p3205
tp3206
Rp3207
tp3208
a(I0
g10
(g14
S'\xdc,Ym\xb9l\xbe?'
p3209
tp3210
Rp3211
tp3212
a(I0
g10
(g14
S'\xb6\xf0D\xc5\xef_\xbe?'
p3213
tp3214
Rp3215
tp3216
a(I0
g10
(g14
S'I\x04H*G;\xbe?'
p3217
tp3218
Rp3219
tp3220
a(I0
g10
(g14
S'W/\xce\xbb\x954\xbe?'
p3221
tp3222
Rp3223
tp3224
a(I0
g10
(g14
S'=\x87\x19>\x87\x19\xbe?'
p3225
tp3226
Rp3227
tp3228
a(I0
g10
(g14
S'Jz\x0c\xbb\xd2\x07\xbe?'
p3229
tp3230
Rp3231
tp3232
a(I0
g10
(g14
S'\xf3\xc4\xcd\x846\xf0\xbd?'
p3233
tp3234
Rp3235
tp3236
a(I0
g10
(g14
S'2\x86\xff@\xd6\xed\xbd?'
p3237
tp3238
Rp3239
tp3240
a(I0
g10
(g14
S'N]G\xe8\xf6\xe0\xbd?'
p3241
tp3242
Rp3243
tp3244
a(I0
g10
(g14
S't!4\xfd\xa0\xc1\xbd?'
p3245
tp3246
Rp3247
tp3248
a(I0
g10
(g14
S'\x9b#\x92\x1d`\xb7\xbd?'
p3249
tp3250
Rp3251
tp3252
a(I0
g10
(g14
S'=?O\xf2\xae\xa7\xbd?'
p3253
tp3254
Rp3255
tp3256
a(I0
g10
(g14
S'\xfd\x99T\xd4\x8e\x98\xbd?'
p3257
tp3258
Rp3259
tp3260
a(I0
g10
(g14
S'\xear\xfb\x83\x0c\x95\xbd?'
p3261
tp3262
Rp3263
tp3264
a(I0
g10
(g14
S'\x9dYNpN\x92\xbd?'
p3265
tp3266
Rp3267
tp3268
a(I0
g10
(g14
S'\x11\xb5?\xa4\xd5\x8e\xbd?'
p3269
tp3270
Rp3271
tp3272
a(I0
g10
(g14
S'\xf3;\x02\x8c\xf0\x8c\xbd?'
p3273
tp3274
Rp3275
tp3276
a(I0
g10
(g14
S'\x0f\xe4\n7[\x8b\xbd?'
p3277
tp3278
Rp3279
tp3280
a(I0
g10
(g14
S'7\x0bMj>\x80\xbd?'
p3281
tp3282
Rp3283
tp3284
a(I0
g10
(g14
S'\xfb\xbf\xb9\x84\xees\xbd?'
p3285
tp3286
Rp3287
tp3288
a(I0
g10
(g14
S'\x1f!\xc9w\x1cP\xbd?'
p3289
tp3290
Rp3291
tp3292
a(I0
g10
(g14
S'/)\x02\xd3~N\xbd?'
p3293
tp3294
Rp3295
tp3296
a(I0
g10
(g14
S'\xad\x0c\x8c)\x06I\xbd?'
p3297
tp3298
Rp3299
tp3300
a(I0
g10
(g14
S'%;\x12Go*\xbd?'
p3301
tp3302
Rp3303
tp3304
a(I0
g10
(g14
S'\x1aCk\x95<(\xbd?'
p3305
tp3306
Rp3307
tp3308
a(I0
g10
(g14
S'\x8a\xc4\x1e\xab\x13(\xbd?'
p3309
tp3310
Rp3311
tp3312
a(I0
g10
(g14
S'\x96\x05%\xe4)\x08\xbd?'
p3313
tp3314
Rp3315
tp3316
a(I0
g10
(g14
S'\x8e\x1cM\xd8\xc7\xe5\xbc?'
p3317
tp3318
Rp3319
tp3320
a(I0
g10
(g14
S':T\x01\xd3\xed\x9a\xbc?'
p3321
tp3322
Rp3323
tp3324
a(I0
g10
(g14
S' \xb5\xc3\x1c\x06\x97\xbc?'
p3325
tp3326
Rp3327
tp3328
a(I0
g10
(g14
S'\xd1e\xec\x88\x84q\xbc?'
p3329
tp3330
Rp3331
tp3332
a(I0
g10
(g14
S'\x93\xf5\x83\xd0\xffZ\xbc?'
p3333
tp3334
Rp3335
tp3336
a(I0
g10
(g14
S'\xc5\x87]SJS\xbc?'
p3337
tp3338
Rp3339
tp3340
a(I0
g10
(g14
S'..\x15\xa15=\xbc?'
p3341
tp3342
Rp3343
tp3344
a(I0
g10
(g14
S'\xe5\xc2\xa0~\\:\xbc?'
p3345
tp3346
Rp3347
tp3348
a(I0
g10
(g14
S'\x9d\x96\xe6\xb2D.\xbc?'
p3349
tp3350
Rp3351
tp3352
a(I0
g10
(g14
S'\xa9w\xf5km\x1e\xbc?'
p3353
tp3354
Rp3355
tp3356
a(I0
g10
(g14
S'\xcfC\x1e_\x06\x14\xbc?'
p3357
tp3358
Rp3359
tp3360
a(I0
g10
(g14
S'/:wh\xcb\x03\xbc?'
p3361
tp3362
Rp3363
tp3364
a(I0
g10
(g14
S'\xc5(h^\xc2\x01\xbc?'
p3365
tp3366
Rp3367
tp3368
a(I0
g10
(g14
S'\xddj\xaa\x90\x10\xe5\xbb?'
p3369
tp3370
Rp3371
tp3372
a(I0
g10
(g14
S'\x06l\x97\x1a\x1a\xdf\xbb?'
p3373
tp3374
Rp3375
tp3376
a(I0
g10
(g14
S';f\xe1\xd9x\xc5\xbb?'
p3377
tp3378
Rp3379
tp3380
a(I0
g10
(g14
S'\xd8T\x1ar\xee\xb3\xbb?'
p3381
tp3382
Rp3383
tp3384
a(I0
g10
(g14
S',lt\x8d>\x9f\xbb?'
p3385
tp3386
Rp3387
tp3388
a(I0
g10
(g14
S'I*bK\xbe\x9d\xbb?'
p3389
tp3390
Rp3391
tp3392
a(I0
g10
(g14
S'\xb7y\x9b\xb7y\x9b\xbb?'
p3393
tp3394
Rp3395
tp3396
a(I0
g10
(g14
S'{+\xe7\x11\x16T\xbb?'
p3397
tp3398
Rp3399
tp3400
a(I0
g10
(g14
S'V\xce\x8d1\xebH\xbb?'
p3401
tp3402
Rp3403
tp3404
a(I0
g10
(g14
S'\xd3\x82)\x04\x070\xbb?'
p3405
tp3406
Rp3407
tp3408
a(I0
g10
(g14
S'\xe0\x8d\xd75\xf5"\xbb?'
p3409
tp3410
Rp3411
tp3412
a(I0
g10
(g14
S'f\xb2.c\x03\x02\xbb?'
p3413
tp3414
Rp3415
tp3416
a(I0
g10
(g14
S'\xd3\x8c\\\x8b\xab\xe1\xba?'
p3417
tp3418
Rp3419
tp3420
a(I0
g10
(g14
S'I\xaeM\xf0\x97\xd5\xba?'
p3421
tp3422
Rp3423
tp3424
a(I0
g10
(g14
S'-\x89\x1c\x98h\xcd\xba?'
p3425
tp3426
Rp3427
tp3428
a(I0
g10
(g14
S'\xcd\x8a\xec\xd9\xf5\xcb\xba?'
p3429
tp3430
Rp3431
tp3432
a(I0
g10
(g14
S'\x8f8\xfe\x99\xf4\xb0\xba?'
p3433
tp3434
Rp3435
tp3436
a(I0
g10
(g14
S'{%\x95\\\xa0\xa9\xba?'
p3437
tp3438
Rp3439
tp3440
a(I0
g10
(g14
S'E:UJ\xb3\x9f\xba?'
p3441
tp3442
Rp3443
tp3444
a(I0
g10
(g14
S'\x1f\x01\xb2\xfc\xcc\x99\xba?'
p3445
tp3446
Rp3447
tp3448
a(I0
g10
(g14
S"\x06'\x8fwd\x99\xba?"
p3449
tp3450
Rp3451
tp3452
a(I0
g10
(g14
S'\xbf\x8a\x1c\x06l\x97\xba?'
p3453
tp3454
Rp3455
tp3456
a(I0
g10
(g14
S';\xc0\xca\x85\x1a\x90\xba?'
p3457
tp3458
Rp3459
tp3460
a(I0
g10
(g14
S'\xc6\x82\x01]mn\xba?'
p3461
tp3462
Rp3463
tp3464
a(I0
g10
(g14
S'$\xed\x0c*Kf\xba?'
p3465
tp3466
Rp3467
tp3468
a(I0
g10
(g14
S'\x18\x8c\x12\xfc\xd0D\xba?'
p3469
tp3470
Rp3471
tp3472
a(I0
g10
(g14
S'F*\xdfM\x888\xba?'
p3473
tp3474
Rp3475
tp3476
a(I0
g10
(g14
S'\xfa\x841g\xb93\xba?'
p3477
tp3478
Rp3479
tp3480
a(I0
g10
(g14
S'\x85U\xb9\\\xf9)\xba?'
p3481
tp3482
Rp3483
tp3484
a(I0
g10
(g14
S'\x18\xefW\xe5\xbb$\xba?'
p3485
tp3486
Rp3487
tp3488
a(I0
g10
(g14
S'\xc0M!\\!\x1b\xba?'
p3489
tp3490
Rp3491
tp3492
a(I0
g10
(g14
S'\xb4\xbf{.\xef\x1a\xba?'
p3493
tp3494
Rp3495
tp3496
a(I0
g10
(g14
S'\t\xce \xc6e\xf0\xb9?'
p3497
tp3498
Rp3499
tp3500
a(I0
g10
(g14
S'\xd8\x9d3\xc3\xef\xeb\xb9?'
p3501
tp3502
Rp3503
tp3504
a(I0
g10
(g14
S'\xda\xa8\x12\x16\xb3\xe9\xb9?'
p3505
tp3506
Rp3507
tp3508
a(I0
g10
(g14
S'\xe0hi\xc9\xb8\xe2\xb9?'
p3509
tp3510
Rp3511
tp3512
a(I0
g10
(g14
S'@\xd6ai\xdf\xde\xb9?'
p3513
tp3514
Rp3515
tp3516
a(I0
g10
(g14
S'\xc9\x19#\x15\xaa\xca\xb9?'
p3517
tp3518
Rp3519
tp3520
a(I0
g10
(g14
S'\xa9/\xcc\xc7\xb4\xb7\xb9?'
p3521
tp3522
Rp3523
tp3524
a(I0
g10
(g14
S'\xa4\x91\xdf\x9d3\x86\xb9?'
p3525
tp3526
Rp3527
tp3528
a(I0
g10
(g14
S'\x14\xce7\x19G\x82\xb9?'
p3529
tp3530
Rp3531
tp3532
a(I0
g10
(g14
S'\xb4\x86\xd2\xde\xac\x7f\xb9?'
p3533
tp3534
Rp3535
tp3536
a(I0
g10
(g14
S'\x16\x17|\xd5]x\xb9?'
p3537
tp3538
Rp3539
tp3540
a(I0
g10
(g14
S'\x01a\x86\x01|w\xb9?'
p3541
tp3542
Rp3543
tp3544
a(I0
g10
(g14
S'\xd3\xe3\xfd\t\xabl\xb9?'
p3545
tp3546
Rp3547
tp3548
a(I0
g10
(g14
S'm\xabu\xbc\xb4g\xb9?'
p3549
tp3550
Rp3551
tp3552
a(I0
g10
(g14
S'\x7fk+\xa3ia\xb9?'
p3553
tp3554
Rp3555
tp3556
a(I0
g10
(g14
S'4\xa5\xfd\xf8\x7f5\xb9?'
p3557
tp3558
Rp3559
tp3560
a(I0
g10
(g14
S'xZK&\xa2,\xb9?'
p3561
tp3562
Rp3563
tp3564
a(I0
g10
(g14
S'\xcd+>:\xba\x1b\xb9?'
p3565
tp3566
Rp3567
tp3568
a(I0
g10
(g14
S'\xf8I\xb0\x1e\xf7\x12\xb9?'
p3569
tp3570
Rp3571
tp3572
a(I0
g10
(g14
S'\x018\x08ru\x12\xb9?'
p3573
tp3574
Rp3575
tp3576
a(I0
g10
(g14
S'2\x92\xe6Cv\x10\xb9?'
p3577
tp3578
Rp3579
tp3580
a(I0
g10
(g14
S'\xdd\xd8\x9a3\n\x04\xb9?'
p3581
tp3582
Rp3583
tp3584
a(I0
g10
(g14
S'D\x8d\xa7\x88\xbf\xf5\xb8?'
p3585
tp3586
Rp3587
tp3588
a(I0
g10
(g14
S'\xe1\xd4\xa0\x15\xd2\xf1\xb8?'
p3589
tp3590
Rp3591
tp3592
a(I0
g10
(g14
S'\xeav34\xec\xe9\xb8?'
p3593
tp3594
Rp3595
tp3596
a(I0
g10
(g14
S'\xa1E\xb6\xf3\xfd\xd4\xb8?'
p3597
tp3598
Rp3599
tp3600
a(I0
g10
(g14
S'\x8d1\xa2\xdf\xe9\xc0\xb8?'
p3601
tp3602
Rp3603
tp3604
a(I0
g10
(g14
S'\x112Tv\x98\xba\xb8?'
p3605
tp3606
Rp3607
tp3608
a(I0
g10
(g14
S'6\xde\xcf4\x14\xb2\xb8?'
p3609
tp3610
Rp3611
tp3612
a(I0
g10
(g14
S'\xc1<"D\xce\x98\xb8?'
p3613
tp3614
Rp3615
tp3616
a(I0
g10
(g14
S'z\xe6~K,\x96\xb8?'
p3617
tp3618
Rp3619
tp3620
a(I0
g10
(g14
S'\xff\xf0`\xe25\x93\xb8?'
p3621
tp3622
Rp3623
tp3624
a(I0
g10
(g14
S'\xb8P\xafe\x98\x90\xb8?'
p3625
tp3626
Rp3627
tp3628
a(I0
g10
(g14
S'\tB\xb8S\xb7n\xb8?'
p3629
tp3630
Rp3631
tp3632
a(I0
g10
(g14
S'cY\xac~/k\xb8?'
p3633
tp3634
Rp3635
tp3636
a(I0
g10
(g14
S'\x1fP\xe1\xc5TZ\xb8?'
p3637
tp3638
Rp3639
tp3640
a(I0
g10
(g14
S'\xd2\xb2\xb8\xb9UD\xb8?'
p3641
tp3642
Rp3643
tp3644
a(I0
g10
(g14
S"\x91e\x1d\x01\xa3'\xb8?"
p3645
tp3646
Rp3647
tp3648
a(I0
g10
(g14
S'\x0cy\xa11&\x04\xb8?'
p3649
tp3650
Rp3651
tp3652
a(I0
g10
(g14
S'\xdaj\xa3_V\xf5\xb7?'
p3653
tp3654
Rp3655
tp3656
a(I0
g10
(g14
S'\xe8X[\x82\xf2\xf4\xb7?'
p3657
tp3658
Rp3659
tp3660
a(I0
g10
(g14
S'\xe4;7\xbes\xe3\xb7?'
p3661
tp3662
Rp3663
tp3664
a(I0
g10
(g14
S'\x8f\xfd\xd8\x8f\xfd\xd8\xb7?'
p3665
tp3666
Rp3667
tp3668
a(I0
g10
(g14
S'\x97\xd8\xcf\xe6\xe1\xc1\xb7?'
p3669
tp3670
Rp3671
tp3672
a(I0
g10
(g14
S'\xb2E\xe0\xefO\xb7\xb7?'
p3673
tp3674
Rp3675
tp3676
a(I0
g10
(g14
S'&\x9e\x15\x8d\x04|\xb7?'
p3677
tp3678
Rp3679
tp3680
a(I0
g10
(g14
S'J\x83\xd7\x03lz\xb7?'
p3681
tp3682
Rp3683
tp3684
a(I0
g10
(g14
S'a8\xfdS\xb2,\xb7?'
p3685
tp3686
Rp3687
tp3688
a(I0
g10
(g14
S'&\xfd\x0b6\xfc&\xb7?'
p3689
tp3690
Rp3691
tp3692
a(I0
g10
(g14
S'\x17q\x11\x17q\x11\xb7?'
p3693
tp3694
Rp3695
tp3696
a(I0
g10
(g14
S'\xce;\xd2!\xbe\x0e\xb7?'
p3697
tp3698
Rp3699
tp3700
a(I0
g10
(g14
S'*\xb0gT\xf1\x05\xb7?'
p3701
tp3702
Rp3703
tp3704
a(I0
g10
(g14
S'\x81\xaf0\xdd>\xf3\xb6?'
p3705
tp3706
Rp3707
tp3708
a(I0
g10
(g14
S'\xb2\xca\r\xaf\x1b\xe1\xb6?'
p3709
tp3710
Rp3711
tp3712
a(I0
g10
(g14
S's!\x0b\x11O\xe0\xb6?'
p3713
tp3714
Rp3715
tp3716
a(I0
g10
(g14
S'\xd1t\xa5R\xb1\xca\xb6?'
p3717
tp3718
Rp3719
tp3720
a(I0
g10
(g14
S'JI\xf7F\x9a\xca\xb6?'
p3721
tp3722
Rp3723
tp3724
a(I0
g10
(g14
S':\x06\xe5\xa7\x94\xc2\xb6?'
p3725
tp3726
Rp3727
tp3728
a(I0
g10
(g14
S'\x17l\xc1\x16l\xc1\xb6?'
p3729
tp3730
Rp3731
tp3732
a(I0
g10
(g14
S'{\x17"\xd5\xf7\xb7\xb6?'
p3733
tp3734
Rp3735
tp3736
a(I0
g10
(g14
S'\xa3F?91\xac\xb6?'
p3737
tp3738
Rp3739
tp3740
a(I0
g10
(g14
S'\\\x0e\x19\xc4t\x7f\xb6?'
p3741
tp3742
Rp3743
tp3744
a(I0
g10
(g14
S'.z\x80\xee\xc0|\xb6?'
p3745
tp3746
Rp3747
tp3748
a(I0
g10
(g14
S'\x93`\xf4\x86Jf\xb6?'
p3749
tp3750
Rp3751
tp3752
a(I0
g10
(g14
S'\xa0\xb4\x91\xfcCT\xb6?'
p3753
tp3754
Rp3755
tp3756
a(I0
g10
(g14
S'\xa0\x8f~m\\K\xb6?'
p3757
tp3758
Rp3759
tp3760
a(I0
g10
(g14
S'\xda\xca\xe0?1G\xb6?'
p3761
tp3762
Rp3763
tp3764
a(I0
g10
(g14
S'S\xc8\xb2l\xefD\xb6?'
p3765
tp3766
Rp3767
tp3768
a(I0
g10
(g14
S'Qpk\x1d=8\xb6?'
p3769
tp3770
Rp3771
tp3772
a(I0
g10
(g14
S'\x9d_RK\xa73\xb6?'
p3773
tp3774
Rp3775
tp3776
a(I0
g10
(g14
S'j\x87\xd7\x80\x1a.\xb6?'
p3777
tp3778
Rp3779
tp3780
a(I0
g10
(g14
S'.\x07\xa6\x93m\x0c\xb6?'
p3781
tp3782
Rp3783
tp3784
a(I0
g10
(g14
S'C\x8cn\x9cl\x04\xb6?'
p3785
tp3786
Rp3787
tp3788
a(I0
g10
(g14
S'\x8f\x97\x0c]d\xd9\xb5?'
p3789
tp3790
Rp3791
tp3792
a(I0
g10
(g14
S'\xce\xa8>\xc6\x80\xc7\xb5?'
p3793
tp3794
Rp3795
tp3796
a(I0
g10
(g14
S'\x18\xcd\x89\xbb=\xc7\xb5?'
p3797
tp3798
Rp3799
tp3800
a(I0
g10
(g14
S'\x06\n,\xef\xac\xb7\xb5?'
p3801
tp3802
Rp3803
tp3804
a(I0
g10
(g14
S'\xb8\xff\x01c\x98\xb6\xb5?'
p3805
tp3806
Rp3807
tp3808
a(I0
g10
(g14
S'\xfa\xf8E\x1f\xa6\xa8\xb5?'
p3809
tp3810
Rp3811
tp3812
a(I0
g10
(g14
S'\x1b\xdd\xc1\xe8\x8e\x9d\xb5?'
p3813
tp3814
Rp3815
tp3816
a(I0
g10
(g14
S'h8\xd5\xb4\x92\x9a\xb5?'
p3817
tp3818
Rp3819
tp3820
a(I0
g10
(g14
S';\xddJ.Wz\xb5?'
p3821
tp3822
Rp3823
tp3824
a(I0
g10
(g14
S'N\xe8\x9e\xfaJq\xb5?'
p3825
tp3826
Rp3827
tp3828
a(I0
g10
(g14
S'\x9c\xcd\xbd\x06\xadn\xb5?'
p3829
tp3830
Rp3831
tp3832
a(I0
g10
(g14
S'\xa4\xcf\x8dp\x9cZ\xb5?'
p3833
tp3834
Rp3835
tp3836
a(I0
g10
(g14
S'\xf4n\x831yZ\xb5?'
p3837
tp3838
Rp3839
tp3840
a(I0
g10
(g14
S'\xf8\xfck\x08MZ\xb5?'
p3841
tp3842
Rp3843
tp3844
a(I0
g10
(g14
S'\xe0R\x01%\x85O\xb5?'
p3845
tp3846
Rp3847
tp3848
a(I0
g10
(g14
S'\xfc\xb0\x02\x10z;\xb5?'
p3849
tp3850
Rp3851
tp3852
a(I0
g10
(g14
S'X\x80\xdck.$\xb5?'
p3853
tp3854
Rp3855
tp3856
a(I0
g10
(g14
S'\xfd\xff\xfd\x80<#\xb5?'
p3857
tp3858
Rp3859
tp3860
a(I0
g10
(g14
S'\x1b\x995\xca\xe0\x16\xb5?'
p3861
tp3862
Rp3863
tp3864
a(I0
g10
(g14
S'\xed-\x86\xa7\xc3\x16\xb5?'
p3865
tp3866
Rp3867
tp3868
a(I0
g10
(g14
S'\xcaP\xe8\x0c\xd4\t\xb5?'
p3869
tp3870
Rp3871
tp3872
a(I0
g10
(g14
S')t\x94\xff\x17\x05\xb5?'
p3873
tp3874
Rp3875
tp3876
a(I0
g10
(g14
S'\xce%S\x98C\xf3\xb4?'
p3877
tp3878
Rp3879
tp3880
a(I0
g10
(g14
S'7\xedS\xb1\x1c\xf3\xb4?'
p3881
tp3882
Rp3883
tp3884
a(I0
g10
(g14
S'\xaf\x9ak\xe5a\xda\xb4?'
p3885
tp3886
Rp3887
tp3888
a(I0
g10
(g14
S'MO0E\x0c\xc8\xb4?'
p3889
tp3890
Rp3891
tp3892
a(I0
g10
(g14
S'\xb1\xae\xa4\xce\xd9\xb4\xb4?'
p3893
tp3894
Rp3895
tp3896
a(I0
g10
(g14
S'8\x1d\xb1\xf8c\xad\xb4?'
p3897
tp3898
Rp3899
tp3900
a(I0
g10
(g14
S'l\xc5H!5\xa1\xb4?'
p3901
tp3902
Rp3903
tp3904
a(I0
g10
(g14
S'\x01\xac\xed\x1a\xd3\x7f\xb4?'
p3905
tp3906
Rp3907
tp3908
a(I0
g10
(g14
S'fp\xcf/\x8eo\xb4?'
p3909
tp3910
Rp3911
tp3912
a(I0
g10
(g14
S'\xa0\xc5d`\x0ca\xb4?'
p3913
tp3914
Rp3915
tp3916
a(I0
g10
(g14
S'=\x06\xcd\xe5\xefT\xb4?'
p3917
tp3918
Rp3919
tp3920
a(I0
g10
(g14
S'>\xf8\xe0\x83\x0f>\xb4?'
p3921
tp3922
Rp3923
tp3924
a(I0
g10
(g14
S'\xf9m\xc6?j2\xb4?'
p3925
tp3926
Rp3927
tp3928
a(I0
g10
(g14
S'\x83\x15\x90\xadV.\xb4?'
p3929
tp3930
Rp3931
tp3932
a(I0
g10
(g14
S'|8\xb7\x12#$\xb4?'
p3933
tp3934
Rp3935
tp3936
a(I0
g10
(g14
S'd\xce{\xaf^#\xb4?'
p3937
tp3938
Rp3939
tp3940
a(I0
g10
(g14
S'\x05\x05\x04\xe6\x9a\t\xb4?'
p3941
tp3942
Rp3943
tp3944
a(I0
g10
(g14
S'\xcc|\xeb<\xba\xf5\xb3?'
p3945
tp3946
Rp3947
tp3948
a(I0
g10
(g14
S'&\\\x0e/\xd9\xd6\xb3?'
p3949
tp3950
Rp3951
tp3952
a(I0
g10
(g14
S']m\xe8j\xd8\xc7\xb3?'
p3953
tp3954
Rp3955
tp3956
a(I0
g10
(g14
S'\x84"\x01\x80\x8e\xc5\xb3?'
p3957
tp3958
Rp3959
tp3960
a(I0
g10
(g14
S'\x9bk\xe4\xd7u\xbb\xb3?'
p3961
tp3962
Rp3963
tp3964
a(I0
g10
(g14
S'\xc7r\x1fqA\xb6\xb3?'
p3965
tp3966
Rp3967
tp3968
a(I0
g10
(g14
S'_=\xde[\x8e\xb1\xb3?'
p3969
tp3970
Rp3971
tp3972
a(I0
g10
(g14
S'\x8dh\x14u\x0b\xa0\xb3?'
p3973
tp3974
Rp3975
tp3976
a(I0
g10
(g14
S'/\xdd$\x06\x81\x95\xb3?'
p3977
tp3978
Rp3979
tp3980
a(I0
g10
(g14
S'\xe3{\x9fr>\x95\xb3?'
p3981
tp3982
Rp3983
tp3984
a(I0
g10
(g14
S'\xc0\xe1{\xe1\x15\x94\xb3?'
p3985
tp3986
Rp3987
tp3988
a(I0
g10
(g14
S'x\xb7\xe0 \xa1h\xb3?'
p3989
tp3990
Rp3991
tp3992
a(I0
g10
(g14
S'\xff\x02r\x0eS`\xb3?'
p3993
tp3994
Rp3995
tp3996
a(I0
g10
(g14
S'\x17`\xe8^\\T\xb3?'
p3997
tp3998
Rp3999
tp4000
a(I0
g10
(g14
S'\x95\xc9\x0c\xb9\xc7B\xb3?'
p4001
tp4002
Rp4003
tp4004
a(I0
g10
(g14
S'&\xbfX\xf2\x8b%\xb3?'
p4005
tp4006
Rp4007
tp4008
a(I0
g10
(g14
S'8<\xfdI;\x18\xb3?'
p4009
tp4010
Rp4011
tp4012
a(I0
g10
(g14
S'\xe0O\x8d\x97n\x12\xb3?'
p4013
tp4014
Rp4015
tp4016
a(I0
g10
(g14
S'\x0fL\xffN \xf4\xb2?'
p4017
tp4018
Rp4019
tp4020
a(I0
g10
(g14
S'\xa8HWA\xe2\xf0\xb2?'
p4021
tp4022
Rp4023
tp4024
a(I0
g10
(g14
S'J>,\xa5\xcd\xee\xb2?'
p4025
tp4026
Rp4027
tp4028
a(I0
g10
(g14
S'\x1av\x05\xc8\xbd\xe6\xb2?'
p4029
tp4030
Rp4031
tp4032
a(I0
g10
(g14
S'\x0b\xac9\xe5\xe3\xe5\xb2?'
p4033
tp4034
Rp4035
tp4036
a(I0
g10
(g14
S'\x15\x06\xb6\xc7\xc6\xe1\xb2?'
p4037
tp4038
Rp4039
tp4040
a(I0
g10
(g14
S'\xf4:\xca\x94\xfc\xda\xb2?'
p4041
tp4042
Rp4043
tp4044
a(I0
g10
(g14
S'\xc2\xb0\xce\xe05\xba\xb2?'
p4045
tp4046
Rp4047
tp4048
a(I0
g10
(g14
S'\xed\x86\xbe\xec3\xac\xb2?'
p4049
tp4050
Rp4051
tp4052
a(I0
g10
(g14
S'\x8d\x85\xbb\x8a\xd6\x8e\xb2?'
p4053
tp4054
Rp4055
tp4056
a(I0
g10
(g14
S'@f\xd6\xd8\xffo\xb2?'
p4057
tp4058
Rp4059
tp4060
a(I0
g10
(g14
S'\xb3\x85\xeaj\xa4o\xb2?'
p4061
tp4062
Rp4063
tp4064
a(I0
g10
(g14
S'2\x16T2\x16T\xb2?'
p4065
tp4066
Rp4067
tp4068
a(I0
g10
(g14
S'\xb8\xaa"\xab$R\xb2?'
p4069
tp4070
Rp4071
tp4072
a(I0
g10
(g14
S'U`\xf7\n\xd0O\xb2?'
p4073
tp4074
Rp4075
tp4076
a(I0
g10
(g14
S'\x9e8\x0c\x00&(\xb2?'
p4077
tp4078
Rp4079
tp4080
a(I0
g10
(g14
S'\xb5\x86M\xa3\xa2#\xb2?'
p4081
tp4082
Rp4083
tp4084
a(I0
g10
(g14
S'\x15\xaeG\xe1z\x14\xb2?'
p4085
tp4086
Rp4087
tp4088
a(I0
g10
(g14
S'\x8aY\xa9\xaf\x06\x0c\xb2?'
p4089
tp4090
Rp4091
tp4092
a(I0
g10
(g14
S'\x08\x16\x81`\x11\x08\xb2?'
p4093
tp4094
Rp4095
tp4096
a(I0
g10
(g14
S'\xce>|\x86]\x01\xb2?'
p4097
tp4098
Rp4099
tp4100
a(I0
g10
(g14
S',u \xb9m\xf8\xb1?'
p4101
tp4102
Rp4103
tp4104
a(I0
g10
(g14
S']H\x9aRq\xf6\xb1?'
p4105
tp4106
Rp4107
tp4108
a(I0
g10
(g14
S'>q\xf1\xfd\xb7\xed\xb1?'
p4109
tp4110
Rp4111
tp4112
a(I0
g10
(g14
S'\xfa?pA!\xeb\xb1?'
p4113
tp4114
Rp4115
tp4116
a(I0
g10
(g14
S'\xf6\xbc\x85\x1bj\xe8\xb1?'
p4117
tp4118
Rp4119
tp4120
a(I0
g10
(g14
S'\x01\xc3\x9fTE\xdc\xb1?'
p4121
tp4122
Rp4123
tp4124
a(I0
g10
(g14
S'\x06]\xd0\x05]\xd0\xb1?'
p4125
tp4126
Rp4127
tp4128
a(I0
g10
(g14
S'"\xa4\x8be\xf1\xca\xb1?'
p4129
tp4130
Rp4131
tp4132
a(I0
g10
(g14
S'\x9b\x82\x19RG\xc3\xb1?'
p4133
tp4134
Rp4135
tp4136
a(I0
g10
(g14
S'A\xef6\x18\x93\xa7\xb1?'
p4137
tp4138
Rp4139
tp4140
a(I0
g10
(g14
S'}\xbd)Ta\x9a\xb1?'
p4141
tp4142
Rp4143
tp4144
a(I0
g10
(g14
S' L\xfd*\xd0\x8e\xb1?'
p4145
tp4146
Rp4147
tp4148
a(I0
g10
(g14
S'D@|\x94\x13\x8c\xb1?'
p4149
tp4150
Rp4151
tp4152
a(I0
g10
(g14
S'\x9c\xc6\xbc(\xda\x85\xb1?'
p4153
tp4154
Rp4155
tp4156
a(I0
g10
(g14
S'_`^\xe1\x9c\x83\xb1?'
p4157
tp4158
Rp4159
tp4160
a(I0
g10
(g14
S'\xee)"Dv|\xb1?'
p4161
tp4162
Rp4163
tp4164
a(I0
g10
(g14
S'\x01K\xfe\x08su\xb1?'
p4165
tp4166
Rp4167
tp4168
a(I0
g10
(g14
S'#\xfd=\xe5\xf2f\xb1?'
p4169
tp4170
Rp4171
tp4172
a(I0
g10
(g14
S'\x1f\xa1K0\xa0f\xb1?'
p4173
tp4174
Rp4175
tp4176
a(I0
g10
(g14
S'c\xc9/\x96\xfcb\xb1?'
p4177
tp4178
Rp4179
tp4180
a(I0
g10
(g14
S'\x0e\xaf\xbd\xa7HW\xb1?'
p4181
tp4182
Rp4183
tp4184
a(I0
g10
(g14
S'\x14qj3\xf6U\xb1?'
p4185
tp4186
Rp4187
tp4188
a(I0
g10
(g14
S']I:\x10\xb7S\xb1?'
p4189
tp4190
Rp4191
tp4192
a(I0
g10
(g14
S'6~\xac\x00\x9cL\xb1?'
p4193
tp4194
Rp4195
tp4196
a(I0
g10
(g14
S'\x04\xca\xbb\xea\xbd\x1a\xb1?'
p4197
tp4198
Rp4199
tp4200
a(I0
g10
(g14
S'h\xeb7\xd6y\x15\xb1?'
p4201
tp4202
Rp4203
tp4204
a(I0
g10
(g14
S'\x16V\xf6\x85\xae\xf1\xb0?'
p4205
tp4206
Rp4207
tp4208
a(I0
g10
(g14
S'\xc1\x89\xd9\xa2\x04\xee\xb0?'
p4209
tp4210
Rp4211
tp4212
a(I0
g10
(g14
S'\xa8\x02Z?\xed\xc6\xb0?'
p4213
tp4214
Rp4215
tp4216
a(I0
g10
(g14
S'\xe6\nc\xbb\xff\xa6\xb0?'
p4217
tp4218
Rp4219
tp4220
a(I0
g10
(g14
S'-\x9f\xb1{\xa8\xa3\xb0?'
p4221
tp4222
Rp4223
tp4224
a(I0
g10
(g14
S'\x8c\x06<\xd08\x8a\xb0?'
p4225
tp4226
Rp4227
tp4228
a(I0
g10
(g14
S'\xf1\x86\xe1\x8a {\xb0?'
p4229
tp4230
Rp4231
tp4232
a(I0
g10
(g14
S';\xf1E\xad\xf8m\xb0?'
p4233
tp4234
Rp4235
tp4236
a(I0
g10
(g14
S'\xd1"\xdb\xf9~j\xb0?'
p4237
tp4238
Rp4239
tp4240
a(I0
g10
(g14
S'\x1a\xbd-kuL\xb0?'
p4241
tp4242
Rp4243
tp4244
a(I0
g10
(g14
S'\xd4)v\xd0\x95:\xb0?'
p4245
tp4246
Rp4247
tp4248
a(I0
g10
(g14
S'\xf1\x1d\x8d\x19z\x1c\xb0?'
p4249
tp4250
Rp4251
tp4252
a(I0
g10
(g14
S'\x180\x8d\x01\xd3\x18\xb0?'
p4253
tp4254
Rp4255
tp4256
a(I0
g10
(g14
S"\xb6'c\xf0\x82\r\xb0?"
p4257
tp4258
Rp4259
tp4260
a(I0
g10
(g14
S'\x01\x00\x00\x00\x00\x00\xb0?'
p4261
tp4262
Rp4263
tp4264
a(I0
g10
(g14
S'\x84\x88\xefC\xb4\xfa\xaf?'
p4265
tp4266
Rp4267
tp4268
a(I0
g10
(g14
S"\x1d\x13<\x98'\xea\xaf?"
p4269
tp4270
Rp4271
tp4272
a(I0
g10
(g14
S'X9\xb4\xc8v\xbe\xaf?'
p4273
tp4274
Rp4275
tp4276
a(I0
g10
(g14
S'i\xb8w+\xc9\x91\xaf?'
p4277
tp4278
Rp4279
tp4280
a(I0
g10
(g14
S'\x83#\x1f\xcb\x1f\x8b\xaf?'
p4281
tp4282
Rp4283
tp4284
a(I0
g10
(g14
S"['\xf4\xc0\x8dZ\xaf?"
p4285
tp4286
Rp4287
tp4288
a(I0
g10
(g14
S'$\xcb\x9d.\xa2A\xaf?'
p4289
tp4290
Rp4291
tp4292
a(I0
g10
(g14
S'\x00\x81<\x8eC2\xaf?'
p4293
tp4294
Rp4295
tp4296
a(I0
g10
(g14
S'\xca\xfd\xca\xb0\xf1)\xaf?'
p4297
tp4298
Rp4299
tp4300
a(I0
g10
(g14
S'\xed\xc3g\xd8\x15 \xaf?'
p4301
tp4302
Rp4303
tp4304
a(I0
g10
(g14
S'\xd6\x95(O\xf6\x1f\xaf?'
p4305
tp4306
Rp4307
tp4308
a(I0
g10
(g14
S'\xc5\x07Y\x92\xef\x16\xaf?'
p4309
tp4310
Rp4311
tp4312
a(I0
g10
(g14
S'X\xcd\xec)\x13\x04\xaf?'
p4313
tp4314
Rp4315
tp4316
a(I0
g10
(g14
S'\xd2U\x908\xbc\xf6\xae?'
p4317
tp4318
Rp4319
tp4320
a(I0
g10
(g14
S'\xc4\xc47\xce\x9b\xdb\xae?'
p4321
tp4322
Rp4323
tp4324
a(I0
g10
(g14
S'\x1dS\xde%v\xcb\xae?'
p4325
tp4326
Rp4327
tp4328
a(I0
g10
(g14
S'\x17\x1f\x8bKR\xbe\xae?'
p4329
tp4330
Rp4331
tp4332
a(I0
g10
(g14
S'I#\xdc\xc6\xe6\xb6\xae?'
p4333
tp4334
Rp4335
tp4336
a(I0
g10
(g14
S'8\x11(/:\x84\xae?'
p4337
tp4338
Rp4339
tp4340
a(I0
g10
(g14
S'\x11X9\xb4\xc8v\xae?'
p4341
tp4342
Rp4343
tp4344
a(I0
g10
(g14
S'\xdbo\xbbt\tU\xae?'
p4345
tp4346
Rp4347
tp4348
a(I0
g10
(g14
S'L~\xb1\xe4\x17K\xae?'
p4349
tp4350
Rp4351
tp4352
a(I0
g10
(g14
S'\xfd\xd0n+\xa6H\xae?'
p4353
tp4354
Rp4355
tp4356
a(I0
g10
(g14
S'\x80x\x03\xb3\xab6\xae?'
p4357
tp4358
Rp4359
tp4360
a(I0
g10
(g14
S'\x05\xba\xf7g\x8c"\xae?'
p4361
tp4362
Rp4363
tp4364
a(I0
g10
(g14
S'\x88\x19@\x06\xdd\x1a\xae?'
p4365
tp4366
Rp4367
tp4368
a(I0
g10
(g14
S"_\xea\x0f\xcf'\x1a\xae?"
p4369
tp4370
Rp4371
tp4372
a(I0
g10
(g14
S'\xb7{\xf1\xf9\xfe\x12\xae?'
p4373
tp4374
Rp4375
tp4376
a(I0
g10
(g14
S'\xf8\xcd\x10vv\xfa\xad?'
p4377
tp4378
Rp4379
tp4380
a(I0
g10
(g14
S'\x91E\x8c\xf7\xab\xf2\xad?'
p4381
tp4382
Rp4383
tp4384
a(I0
g10
(g14
S'L\xcb\x13{\xa0\xed\xad?'
p4385
tp4386
Rp4387
tp4388
a(I0
g10
(g14
S'@\xab\xec[K\xc9\xad?'
p4389
tp4390
Rp4391
tp4392
a(I0
g10
(g14
S'w\xbe\x1a\xdf$\x81\xad?'
p4393
tp4394
Rp4395
tp4396
a(I0
g10
(g14
S'\x0e\xd8\x80\r\xd8\x80\xad?'
p4397
tp4398
Rp4399
tp4400
a(I0
g10
(g14
S'8B\x19\xbd-k\xad?'
p4401
tp4402
Rp4403
tp4404
a(I0
g10
(g14
S'W\x12)\xfb\x82f\xad?'
p4405
tp4406
Rp4407
tp4408
a(I0
g10
(g14
S'rm\xd1\xb83[\xad?'
p4409
tp4410
Rp4411
tp4412
a(I0
g10
(g14
S'\x1d\x97\xfa\xfe\x11\x0f\xad?'
p4413
tp4414
Rp4415
tp4416
a(I0
g10
(g14
S'q\x93\x81\xa9?\xff\xac?'
p4417
tp4418
Rp4419
tp4420
a(I0
g10
(g14
S'\xa6O\xfa\xa4O\xfa\xac?'
p4421
tp4422
Rp4423
tp4424
a(I0
g10
(g14
S'\x0e\xf04g\xb5\xd9\xac?'
p4425
tp4426
Rp4427
tp4428
a(I0
g10
(g14
S'\xa9s)\xff\xa4\x92\xac?'
p4429
tp4430
Rp4431
tp4432
a(I0
g10
(g14
S']\x01r\xaf\xb9\x90\xac?'
p4433
tp4434
Rp4435
tp4436
a(I0
g10
(g14
S'\\\x13\x81\\\x13\x81\xac?'
p4437
tp4438
Rp4439
tp4440
a(I0
g10
(g14
S' S \x06G\x7f\xac?'
p4441
tp4442
Rp4443
tp4444
a(I0
g10
(g14
S'\xa1f\xf9X\x85~\xac?'
p4445
tp4446
Rp4447
tp4448
a(I0
g10
(g14
S'\xf7!\xfb\xce\xaaz\xac?'
p4449
tp4450
Rp4451
tp4452
a(I0
g10
(g14
S'\xa3\x93\xa0o`m\xac?'
p4453
tp4454
Rp4455
tp4456
a(I0
g10
(g14
S'\xa3\x91\x80o^M\xac?'
p4457
tp4458
Rp4459
tp4460
a(I0
g10
(g14
S'\xae\x16\xfdBR=\xac?'
p4461
tp4462
Rp4463
tp4464
a(I0
g10
(g14
S'\xf7G\xab\xbf\xb6\x1e\xac?'
p4465
tp4466
Rp4467
tp4468
a(I0
g10
(g14
S'\xec(3\n\xae\x1e\xac?'
p4469
tp4470
Rp4471
tp4472
a(I0
g10
(g14
S')\xd6l\xa4\xea\x1a\xac?'
p4473
tp4474
Rp4475
tp4476
a(I0
g10
(g14
S'O\x08\x9a\xb5n\x00\xac?'
p4477
tp4478
Rp4479
tp4480
a(I0
g10
(g14
S'3\xbe|;\xe6\xf3\xab?'
p4481
tp4482
Rp4483
tp4484
a(I0
g10
(g14
S'\xb37\xe6B\xdf\xea\xab?'
p4485
tp4486
Rp4487
tp4488
a(I0
g10
(g14
S'\x9a\xd23\x14\xe7\xe1\xab?'
p4489
tp4490
Rp4491
tp4492
a(I0
g10
(g14
S'\x9c\xba\x8e\xd0\xed\xc1\xab?'
p4493
tp4494
Rp4495
tp4496
a(I0
g10
(g14
S'I\xe1\xbc\x8b\xbe\xb9\xab?'
p4497
tp4498
Rp4499
tp4500
a(I0
g10
(g14
S'\x00\xce\x17)\x0f\xb6\xab?'
p4501
tp4502
Rp4503
tp4504
a(I0
g10
(g14
S'\x9fk8\x05\xd2\x9e\xab?'
p4505
tp4506
Rp4507
tp4508
a(I0
g10
(g14
S'h\xd8\x15 \xf7\x9a\xab?'
p4509
tp4510
Rp4511
tp4512
a(I0
g10
(g14
S'\n\xa6\xbf8{\x99\xab?'
p4513
tp4514
Rp4515
tp4516
a(I0
g10
(g14
S'\x14v\xcb\xb1\xbe\x91\xab?'
p4517
tp4518
Rp4519
tp4520
a(I0
g10
(g14
S'\x81o\xbd{\x11d\xab?'
p4521
tp4522
Rp4523
tp4524
a(I0
g10
(g14
S'\xc3BFp\xa5\x18\xab?'
p4525
tp4526
Rp4527
tp4528
a(I0
g10
(g14
S'\xe4\x01\xd6\x175\t\xab?'
p4529
tp4530
Rp4531
tp4532
a(I0
g10
(g14
S'\xcd \xc5p\x91\x02\xab?'
p4533
tp4534
Rp4535
tp4536
a(I0
g10
(g14
S'\x1a_m\xcf\xb3\xd4\xaa?'
p4537
tp4538
Rp4539
tp4540
a(I0
g10
(g14
S'\xe9|\xdc\x08\x02\xc8\xaa?'
p4541
tp4542
Rp4543
tp4544
a(I0
g10
(g14
S'T\x9c}\xf8\x0c\xbb\xaa?'
p4545
tp4546
Rp4547
tp4548
a(I0
g10
(g14
S'[\xc1\xc1\xdaN\xba\xaa?'
p4549
tp4550
Rp4551
tp4552
a(I0
g10
(g14
S'\x1b\xaf\x0f^\x12\xb6\xaa?'
p4553
tp4554
Rp4555
tp4556
a(I0
g10
(g14
S'\x83b\x84\xd5\x1a\xa3\xaa?'
p4557
tp4558
Rp4559
tp4560
a(I0
g10
(g14
S'\x01v\xc6\xcdB\x93\xaa?'
p4561
tp4562
Rp4563
tp4564
a(I0
g10
(g14
S'.\x0e\x16\x94t|\xaa?'
p4565
tp4566
Rp4567
tp4568
a(I0
g10
(g14
S'\xdb\x04e\xadJ|\xaa?'
p4569
tp4570
Rp4571
tp4572
a(I0
g10
(g14
S'i_\xe1\x00\xf9z\xaa?'
p4573
tp4574
Rp4575
tp4576
a(I0
g10
(g14
S'e\x040\x88\x1dW\xaa?'
p4577
tp4578
Rp4579
tp4580
a(I0
g10
(g14
S'\xc4\xc4D$\xcdQ\xaa?'
p4581
tp4582
Rp4583
tp4584
a(I0
g10
(g14
S'd\x19\x11&\x0f:\xaa?'
p4585
tp4586
Rp4587
tp4588
a(I0
g10
(g14
S'\x9d\x8e\xdf!z1\xaa?'
p4589
tp4590
Rp4591
tp4592
a(I0
g10
(g14
S'S\xd2\xbe\x86\x05\xf2\xa9?'
p4593
tp4594
Rp4595
tp4596
a(I0
g10
(g14
S'\xda\x9e\xed\xd9\x9e\xed\xa9?'
p4597
tp4598
Rp4599
tp4600
a(I0
g10
(g14
S'\xc6\xffl\r\xe1\xe7\xa9?'
p4601
tp4602
Rp4603
tp4604
a(I0
g10
(g14
S'\xb3\xd0\xa4\xe6\x03\xd8\xa9?'
p4605
tp4606
Rp4607
tp4608
a(I0
g10
(g14
S'}\x03k\xe3i\xd1\xa9?'
p4609
tp4610
Rp4611
tp4612
a(I0
g10
(g14
S'V4\x12\xf0\xcd\xab\xa9?'
p4613
tp4614
Rp4615
tp4616
a(I0
g10
(g14
S'`g\xdc,4\xa9\xa9?'
p4617
tp4618
Rp4619
tp4620
a(I0
g10
(g14
S'\xd2\xd7\x9bB\x15\xa6\xa9?'
p4621
tp4622
Rp4623
tp4624
a(I0
g10
(g14
S'}\x00;\xe3f\xa1\xa9?'
p4625
tp4626
Rp4627
tp4628
a(I0
g10
(g14
S'x\x90\xeb\xe2o\x9c\xa9?'
p4629
tp4630
Rp4631
tp4632
a(I0
g10
(g14
S'\xba\t\xa29\x97\x9a\xa9?'
p4633
tp4634
Rp4635
tp4636
a(I0
g10
(g14
S'\xca\xa0v:\xde\x80\xa9?'
p4637
tp4638
Rp4639
tp4640
a(I0
g10
(g14
S'\xb8]\x7ff\xa5`\xa9?'
p4641
tp4642
Rp4643
tp4644
a(I0
g10
(g14
S'\x801\xb7j\x9e`\xa9?'
p4645
tp4646
Rp4647
tp4648
a(I0
g10
(g14
S'\x1c\xf5\xfa\xbee8\xa9?'
p4649
tp4650
Rp4651
tp4652
a(I0
g10
(g14
S'\xe8oV\xff\xe21\xa9?'
p4653
tp4654
Rp4655
tp4656
a(I0
g10
(g14
S'\x869\xf8\xa6m\x10\xa9?'
p4657
tp4658
Rp4659
tp4660
a(I0
g10
(g14
S'H\xff\x1d\xa3\x8e\xe0\xa8?'
p4661
tp4662
Rp4663
tp4664
a(I0
g10
(g14
S'\xd7y\x04\x15\x84\xdb\xa8?'
p4665
tp4666
Rp4667
tp4668
a(I0
g10
(g14
S'\xe6\xe1\t\xf0\xb8\xad\xa8?'
p4669
tp4670
Rp4671
tp4672
a(I0
g10
(g14
S'\xa0n\x86\xaf\xbet\xa8?'
p4673
tp4674
Rp4675
tp4676
a(I0
g10
(g14
S'J\x81\x9dW\x07n\xa8?'
p4677
tp4678
Rp4679
tp4680
a(I0
g10
(g14
S'N\xac\x8d*\xaeW\xa8?'
p4681
tp4682
Rp4683
tp4684
a(I0
g10
(g14
S'\xffNV\xcb\x1b#\xa8?'
p4685
tp4686
Rp4687
tp4688
a(I0
g10
(g14
S'\x83\xa9\xacx\xd2\x08\xa8?'
p4689
tp4690
Rp4691
tp4692
a(I0
g10
(g14
S'mC\x81\xa4\xef\xfe\xa7?'
p4693
tp4694
Rp4695
tp4696
a(I0
g10
(g14
S'\xe4\x17K~\xb1\xe4\xa7?'
p4697
tp4698
Rp4699
tp4700
a(I0
g10
(g14
S'\xc9\xf8\xc9\xa9s\xde\xa7?'
p4701
tp4702
Rp4703
tp4704
a(I0
g10
(g14
S'\xf1\xba\xcd`\xf8\xd7\xa7?'
p4705
tp4706
Rp4707
tp4708
a(I0
g10
(g14
S'\x06\xac\x08\xd3x\xd5\xa7?'
p4709
tp4710
Rp4711
tp4712
a(I0
g10
(g14
S'\xe1\ng\xf6\xb8\xae\xa7?'
p4713
tp4714
Rp4715
tp4716
a(I0
g10
(g14
S'3\x99"\xec\xb7\xa7\xa7?'
p4717
tp4718
Rp4719
tp4720
a(I0
g10
(g14
S'<Q\xffF(\xa3\xa7?'
p4721
tp4722
Rp4723
tp4724
a(I0
g10
(g14
S'\x9b\xc0\x16\xf2\xf1\x7f\xa7?'
p4725
tp4726
Rp4727
tp4728
a(I0
g10
(g14
S'\xe6m\xc2PMs\xa7?'
p4729
tp4730
Rp4731
tp4732
a(I0
g10
(g14
S'\xd7tM\xd7tM\xa7?'
p4733
tp4734
Rp4735
tp4736
a(I0
g10
(g14
S'/\xe2\x08\x82\x7f6\xa7?'
p4737
tp4738
Rp4739
tp4740
a(I0
g10
(g14
S'\xcf\xb0+@\xee5\xa7?'
p4741
tp4742
Rp4743
tp4744
a(I0
g10
(g14
S'\xcf\xb0+@\xee5\xa7?'
p4745
tp4746
Rp4747
tp4748
a(I0
g10
(g14
S'\xf2\x02\xe0\xf6{*\xa7?'
p4749
tp4750
Rp4751
tp4752
a(I0
g10
(g14
S'\xcd(R\xc7\xca\xf8\xa6?'
p4753
tp4754
Rp4755
tp4756
a(I0
g10
(g14
S'\x11\xc0\xb8C\xf3\xeb\xa6?'
p4757
tp4758
Rp4759
tp4760
a(I0
g10
(g14
S'\x83\xfe\x98\x86w\xe3\xa6?'
p4761
tp4762
Rp4763
tp4764
a(I0
g10
(g14
S'\tJ\x03\x07\x9b\xd6\xa6?'
p4765
tp4766
Rp4767
tp4768
a(I0
g10
(g14
S'\xe9\xbe\x80}\xfa\xc0\xa6?'
p4769
tp4770
Rp4771
tp4772
a(I0
g10
(g14
S'e\x92\xdf\xfca[\xa6?'
p4773
tp4774
Rp4775
tp4776
a(I0
g10
(g14
S'}Uy\xc9\xaf>\xa6?'
p4777
tp4778
Rp4779
tp4780
a(I0
g10
(g14
S'\xac\xc5rD_\x0c\xa6?'
p4781
tp4782
Rp4783
tp4784
a(I0
g10
(g14
S'\xb6w:\xcc\x05\x07\xa6?'
p4785
tp4786
Rp4787
tp4788
a(I0
g10
(g14
S'\xe8\x12\xc8\x1aF\xfb\xa5?'
p4789
tp4790
Rp4791
tp4792
a(I0
g10
(g14
S'l\xf3@\xe6\x07\xef\xa5?'
p4793
tp4794
Rp4795
tp4796
a(I0
g10
(g14
S'\xfa?pA!\xeb\xa5?'
p4797
tp4798
Rp4799
tp4800
a(I0
g10
(g14
S'\xaaR<\xc4^\xdd\xa5?'
p4801
tp4802
Rp4803
tp4804
a(I0
g10
(g14
S'\xca3(\xd5\n\xcc\xa5?'
p4805
tp4806
Rp4807
tp4808
a(I0
g10
(g14
S'\xff\xe1\xb4n:\xb0\xa5?'
p4809
tp4810
Rp4811
tp4812
a(I0
g10
(g14
S'\xce_\xbf\xeb\xe4\xaa\xa5?'
p4813
tp4814
Rp4815
tp4816
a(I0
g10
(g14
S'L\xd9\xea6+\xa3\xa5?'
p4817
tp4818
Rp4819
tp4820
a(I0
g10
(g14
S'\x1f\xf4waw\x99\xa5?'
p4821
tp4822
Rp4823
tp4824
a(I0
g10
(g14
S'S*\xce>|\x86\xa5?'
p4825
tp4826
Rp4827
tp4828
a(I0
g10
(g14
S'T\xa4\xab qx\xa5?'
p4829
tp4830
Rp4831
tp4832
a(I0
g10
(g14
S'\xfa\x19\xea1\xc6g\xa5?'
p4833
tp4834
Rp4835
tp4836
a(I0
g10
(g14
S'\xa1\x87\xf8\x06\xee^\xa5?'
p4837
tp4838
Rp4839
tp4840
a(I0
g10
(g14
S'{v\x9e\x84MB\xa5?'
p4841
tp4842
Rp4843
tp4844
a(I0
g10
(g14
S'\x1d\xd4A\x1d\xd4A\xa5?'
p4845
tp4846
Rp4847
tp4848
a(I0
g10
(g14
S'\x1b h\xe8\xec4\xa5?'
p4849
tp4850
Rp4851
tp4852
a(I0
g10
(g14
S'\xdb\x1fd\xa8\xec0\xa5?'
p4853
tp4854
Rp4855
tp4856
a(I0
g10
(g14
S')\x95t%\x1c*\xa5?'
p4857
tp4858
Rp4859
tp4860
a(I0
g10
(g14
S'\xb8bc\xe2\xa3\x01\xa5?'
p4861
tp4862
Rp4863
tp4864
a(I0
g10
(g14
S')\x01\x91\x8eg\xf7\xa4?'
p4865
tp4866
Rp4867
tp4868
a(I0
g10
(g14
S'\xba/l\x00\x11\xe7\xa4?'
p4869
tp4870
Rp4871
tp4872
a(I0
g10
(g14
S'\x94\xd1\xdb\xb2V\xc7\xa4?'
p4873
tp4874
Rp4875
tp4876
a(I0
g10
(g14
S'C\xed\xbcq\xa7\xa5\xa4?'
p4877
tp4878
Rp4879
tp4880
a(I0
g10
(g14
S'f\xba^\n+\x9c\xa4?'
p4881
tp4882
Rp4883
tp4884
a(I0
g10
(g14
S'n\xf2\xef7\x10\x90\xa4?'
p4885
tp4886
Rp4887
tp4888
a(I0
g10
(g14
S'\\\x99\xa3z\x1e\x8f\xa4?'
p4889
tp4890
Rp4891
tp4892
a(I0
g10
(g14
S'\xe4\xa5\xde\\\xd5}\xa4?'
p4893
tp4894
Rp4895
tp4896
a(I0
g10
(g14
S'\x1f\xe2W`ey\xa4?'
p4897
tp4898
Rp4899
tp4900
a(I0
g10
(g14
S'op\x1be\x99w\xa4?'
p4901
tp4902
Rp4903
tp4904
a(I0
g10
(g14
S'\xe3<\xb2M\x1cc\xa4?'
p4905
tp4906
Rp4907
tp4908
a(I0
g10
(g14
S'\x82\x04\xd0\x9a+b\xa4?'
p4909
tp4910
Rp4911
tp4912
a(I0
g10
(g14
S'\x9f\x17\x0c3SL\xa4?'
p4913
tp4914
Rp4915
tp4916
a(I0
g10
(g14
S'=\xaf7\x9e\xb7D\xa4?'
p4917
tp4918
Rp4919
tp4920
a(I0
g10
(g14
S')\\\x8f\xc2\xf5(\xa4?'
p4921
tp4922
Rp4923
tp4924
a(I0
g10
(g14
S'C\xb0%\x8f\n\xeb\xa3?'
p4925
tp4926
Rp4927
tp4928
a(I0
g10
(g14
S'I\xd1\x1e\xc4\xe5\xcc\xa3?'
p4929
tp4930
Rp4931
tp4932
a(I0
g10
(g14
S'\x85\xebQ\xb8\x1e\x85\xa3?'
p4933
tp4934
Rp4935
tp4936
a(I0
g10
(g14
S'\x80\xb3\xe6\x19M\x80\xa3?'
p4937
tp4938
Rp4939
tp4940
a(I0
g10
(g14
S'\xa2\xfe\x8dPFo\xa3?'
p4941
tp4942
Rp4943
tp4944
a(I0
g10
(g14
S'\xdcs\\L\xb1f\xa3?'
p4945
tp4946
Rp4947
tp4948
a(I0
g10
(g14
S'\xde\xc1\xce\xe2:\x19\xa3?'
p4949
tp4950
Rp4951
tp4952
a(I0
g10
(g14
S'\x16\xe3\xaf|I\x16\xa3?'
p4953
tp4954
Rp4955
tp4956
a(I0
g10
(g14
S't\x81\xb9\x01\x90\xf8\xa2?'
p4957
tp4958
Rp4959
tp4960
a(I0
g10
(g14
S'\xc4g\xd8\x15 \xf7\xa2?'
p4961
tp4962
Rp4963
tp4964
a(I0
g10
(g14
S'\x9c\xacBu\xe4\xee\xa2?'
p4965
tp4966
Rp4967
tp4968
a(I0
g10
(g14
S'\xfd\xb9P\x023\x9b\xa2?'
p4969
tp4970
Rp4971
tp4972
a(I0
g10
(g14
S'L\x9e_\x0e\x94\x88\xa2?'
p4973
tp4974
Rp4975
tp4976
a(I0
g10
(g14
S',Z<_\x8do\xa2?'
p4977
tp4978
Rp4979
tp4980
a(I0
g10
(g14
S'\x93$I\x92$I\xa2?'
p4981
tp4982
Rp4983
tp4984
a(I0
g10
(g14
S'\x84|\x07\xb7\xaf:\xa2?'
p4985
tp4986
Rp4987
tp4988
a(I0
g10
(g14
S'""""""\xa2?'
p4989
tp4990
Rp4991
tp4992
a(I0
g10
(g14
S'\x9b\x08&\xa9X\x14\xa2?'
p4993
tp4994
Rp4995
tp4996
a(I0
g10
(g14
S'\xff1e\x98\xcb\xfe\xa1?'
p4997
tp4998
Rp4999
tp5000
a(I0
g10
(g14
S'_\xb62\xf8O\xcc\xa1?'
p5001
tp5002
Rp5003
tp5004
a(I0
g10
(g14
S'\xf7\xb41\x10\xdc\xc3\xa1?'
p5005
tp5006
Rp5007
tp5008
a(I0
g10
(g14
S'\xfd\xbeA\xd4b\xb2\xa1?'
p5009
tp5010
Rp5011
tp5012
a(I0
g10
(g14
S'\x99\x99\x99\x99\x99\x99\xa1?'
p5013
tp5014
Rp5015
tp5016
a(I0
g10
(g14
S'\xe1\xac#\x87\xcc\x8d\xa1?'
p5017
tp5018
Rp5019
tp5020
a(I0
g10
(g14
S'F\xb6\xf3\xfd\xd4x\xa1?'
p5021
tp5022
Rp5023
tp5024
a(I0
g10
(g14
S'A~\x88_\x03t\xa1?'
p5025
tp5026
Rp5027
tp5028
a(I0
g10
(g14
S's\x0b25\x01[\xa1?'
p5029
tp5030
Rp5031
tp5032
a(I0
g10
(g14
S'\xa8\xe6\xde\xbfCS\xa1?'
p5033
tp5034
Rp5035
tp5036
a(I0
g10
(g14
S'\x9d\xac\x967F0\xa1?'
p5037
tp5038
Rp5039
tp5040
a(I0
g10
(g14
S'\xcf\xfb\xe2\xb2%$\xa1?'
p5041
tp5042
Rp5043
tp5044
a(I0
g10
(g14
S'r\x11\x17q\x11\x17\xa1?'
p5045
tp5046
Rp5047
tp5048
a(I0
g10
(g14
S':\x03\x07\x84\xa9\x15\xa1?'
p5049
tp5050
Rp5051
tp5052
a(I0
g10
(g14
S'\xd4\xa5\xd0\xf6\xa3\x06\xa1?'
p5053
tp5054
Rp5055
tp5056
a(I0
g10
(g14
S'\xa3\xb8\xecs\xfe\x03\xa1?'
p5057
tp5058
Rp5059
tp5060
a(I0
g10
(g14
S'\xda@\xa7\rt\xda\xa0?'
p5061
tp5062
Rp5063
tp5064
a(I0
g10
(g14
S'\x16g\x1f>\xc3\xae\xa0?'
p5065
tp5066
Rp5067
tp5068
a(I0
g10
(g14
S'w\xc7\xceC\x94\x9b\xa0?'
p5069
tp5070
Rp5071
tp5072
a(I0
g10
(g14
S'*;L]n\x7f\xa0?'
p5073
tp5074
Rp5075
tp5076
a(I0
g10
(g14
S'a\x08\r\x86\xd0`\xa0?'
p5077
tp5078
Rp5079
tp5080
a(I0
g10
(g14
S'\x8fQ\x7f[\x1eL\xa0?'
p5081
tp5082
Rp5083
tp5084
a(I0
g10
(g14
S'l\xdf\xb0\xf6\rk\x9f?'
p5085
tp5086
Rp5087
tp5088
a(I0
g10
(g14
S'H\x1c^{O\x91\x9e?'
p5089
tp5090
Rp5091
tp5092
a(I0
g10
(g14
S'i\x91\xed|?5\x9e?'
p5093
tp5094
Rp5095
tp5096
a(I0
g10
(g14
S'\xdd\xdd\xdd\xdd\xdd\xdd\x9d?'
p5097
tp5098
Rp5099
tp5100
a(I0
g10
(g14
S'\xa9\x01/\x9e*\x8b\x9d?'
p5101
tp5102
Rp5103
tp5104
a(I0
g10
(g14
S'\x8ePFo\xcbZ\x9d?'
p5105
tp5106
Rp5107
tp5108
a(I0
g10
(g14
S'nT\t\x8b\xd9\xf4\x9c?'
p5109
tp5110
Rp5111
tp5112
a(I0
g10
(g14
S's\x8c\x9a\xb8\xbe\xe8\x9c?'
p5113
tp5114
Rp5115
tp5116
a(I0
g10
(g14
S'\xd12`6\x99\xc6\x9c?'
p5117
tp5118
Rp5119
tp5120
a(I0
g10
(g14
S'E\xfa/.\x9d\xbb\x9c?'
p5121
tp5122
Rp5123
tp5124
a(I0
g10
(g14
S'\xe8\x0fl\xfb\xbd\xb3\x9c?'
p5125
tp5126
Rp5127
tp5128
a(I0
g10
(g14
S'\x84\xc7\x95\x13\x8a\x8b\x9c?'
p5129
tp5130
Rp5131
tp5132
a(I0
g10
(g14
S'\xb4\x0f\x9faW\x80\x9c?'
p5133
tp5134
Rp5135
tp5136
a(I0
g10
(g14
S'\xc0\xa4\xbc\x07\x867\x9c?'
p5137
tp5138
Rp5139
tp5140
a(I0
g10
(g14
S'\xe9\\\x9b\x82\xf64\x9c?'
p5141
tp5142
Rp5143
tp5144
a(I0
g10
(g14
S'\xfc\x85#\xfc\x85#\x9c?'
p5145
tp5146
Rp5147
tp5148
a(I0
g10
(g14
S'<\x8f,Z/\t\x9c?'
p5149
tp5150
Rp5151
tp5152
a(I0
g10
(g14
S'd\x82\x07\xf3D\xfd\x9b?'
p5153
tp5154
Rp5155
tp5156
a(I0
g10
(g14
S'\xfd\xd9\\e%\xd2\x9b?'
p5157
tp5158
Rp5159
tp5160
a(I0
g10
(g14
S'\x85\xebQ\xb8\x1e\x85\x9b?'
p5161
tp5162
Rp5163
tp5164
a(I0
g10
(g14
S'v\x9bc\xb79v\x9b?'
p5165
tp5166
Rp5167
tp5168
a(I0
g10
(g14
S'N\x1b\xe8\xb4\x81N\x9b?'
p5169
tp5170
Rp5171
tp5172
a(I0
g10
(g14
S'\x86\xdc\xdc{\x059\x9b?'
p5173
tp5174
Rp5175
tp5176
a(I0
g10
(g14
S'#~H\xeeJ\x15\x9b?'
p5177
tp5178
Rp5179
tp5180
a(I0
g10
(g14
S'\x9dt\xfd|\n\x03\x9b?'
p5181
tp5182
Rp5183
tp5184
a(I0
g10
(g14
S'\xc4g\xd8\x15 \xf7\x9a?'
p5185
tp5186
Rp5187
tp5188
a(I0
g10
(g14
S'\xe1z\x14\xaeG\xe1\x9a?'
p5189
tp5190
Rp5191
tp5192
a(I0
g10
(g14
S'\xad\xa5\xe3\xb9+\xb4\x9a?'
p5193
tp5194
Rp5195
tp5196
a(I0
g10
(g14
S'\xaa\xaa\xaa\xaa\xaa\xaa\x9a?'
p5197
tp5198
Rp5199
tp5200
a(I0
g10
(g14
S'\x01v\xc6\xcdB\x93\x9a?'
p5201
tp5202
Rp5203
tp5204
a(I0
g10
(g14
S'\xc0r\x92\x8d?_\x9a?'
p5205
tp5206
Rp5207
tp5208
a(I0
g10
(g14
S'\xaf\x00\xb9\xd7\\H\x9a?'
p5209
tp5210
Rp5211
tp5212
a(I0
g10
(g14
S'1Z\x9b9L0\x9a?'
p5213
tp5214
Rp5215
tp5216
a(I0
g10
(g14
S'WMv\xd2a$\x9a?'
p5217
tp5218
Rp5219
tp5220
a(I0
g10
(g14
S'\xce\x07\xb03n\x16\x9a?'
p5221
tp5222
Rp5223
tp5224
a(I0
g10
(g14
S'\x14\xdd\x86\xdd0\t\x9a?'
p5225
tp5226
Rp5227
tp5228
a(I0
g10
(g14
S'\x9a\x99\x99\x99\x99\x99\x99?'
p5229
tp5230
Rp5231
tp5232
a(I0
g10
(g14
S'*\x97r)\x97r\x99?'
p5233
tp5234
Rp5235
tp5236
a(I0
g10
(g14
S'3\xca<f\xfdo\x99?'
p5237
tp5238
Rp5239
tp5240
a(I0
g10
(g14
S'\x08\xe2\x1bE\x07\xe4\x98?'
p5241
tp5242
Rp5243
tp5244
a(I0
g10
(g14
S'\xbcg\xec\x03Ig\x98?'
p5245
tp5246
Rp5247
tp5248
a(I0
g10
(g14
S'd\x98\xcb\xfe1e\x98?'
p5249
tp5250
Rp5251
tp5252
a(I0
g10
(g14
S'*\xc5C\xec\xd5]\x98?'
p5253
tp5254
Rp5255
tp5256
a(I0
g10
(g14
S'\x98h\xcc.\x1dW\x98?'
p5257
tp5258
Rp5259
tp5260
a(I0
g10
(g14
S'o\xcbZ\x1d\x13<\x98?'
p5261
tp5262
Rp5263
tp5264
a(I0
g10
(g14
S'.Z\x8e712\x98?'
p5265
tp5266
Rp5267
tp5268
a(I0
g10
(g14
S'\x8d\xde\x96\xb5:&\x98?'
p5269
tp5270
Rp5271
tp5272
a(I0
g10
(g14
S'\xc44r|S\xf7\x97?'
p5273
tp5274
Rp5275
tp5276
a(I0
g10
(g14
S'\xe4\x17K~\xb1\xe4\x97?'
p5277
tp5278
Rp5279
tp5280
a(I0
g10
(g14
S'W|\xc5W|\xc5\x97?'
p5281
tp5282
Rp5283
tp5284
a(I0
g10
(g14
S'c\x9b\xbc\x0c4q\x97?'
p5285
tp5286
Rp5287
tp5288
a(I0
g10
(g14
S'\xf7M\x9dQ\xf8P\x97?'
p5289
tp5290
Rp5291
tp5292
a(I0
g10
(g14
S'\xf7M\x9dQ\xf8P\x97?'
p5293
tp5294
Rp5295
tp5296
a(I0
g10
(g14
S'@-0\x92\xe5N\x97?'
p5297
tp5298
Rp5299
tp5300
a(I0
g10
(g14
S'\xe4\xa0q}:\x0b\x97?'
p5301
tp5302
Rp5303
tp5304
a(I0
g10
(g14
S'\x0fv\xdcB\xa9\x0f\x96?'
p5305
tp5306
Rp5307
tp5308
a(I0
g10
(g14
S'\xf7\xcaYP\xab\xef\x95?'
p5309
tp5310
Rp5311
tp5312
a(I0
g10
(g14
S':6\xd4\x80\x17O\x95?'
p5313
tp5314
Rp5315
tp5316
a(I0
g10
(g14
S'\xae\x82\xc4\xe1\xb5\xf7\x94?'
p5317
tp5318
Rp5319
tp5320
a(I0
g10
(g14
S'\xe8\xb4\x81N\x1b\xe8\x94?'
p5321
tp5322
Rp5323
tp5324
a(I0
g10
(g14
S'6M\xd34M\xd3\x94?'
p5325
tp5326
Rp5327
tp5328
a(I0
g10
(g14
S'\x06\xc8\xbd\xe6B\xd2\x94?'
p5329
tp5330
Rp5331
tp5332
a(I0
g10
(g14
S'\x91r=\x85\x9b\x99\x94?'
p5333
tp5334
Rp5335
tp5336
a(I0
g10
(g14
S'+\x87\x16\xd9\xce\xf7\x93?'
p5337
tp5338
Rp5339
tp5340
a(I0
g10
(g14
S'!\xa7w\xd8\xe0\xed\x93?'
p5341
tp5342
Rp5343
tp5344
a(I0
g10
(g14
S'\xe1\xd6:zp\xd4\x93?'
p5345
tp5346
Rp5347
tp5348
a(I0
g10
(g14
S'\xa1\xd3\x06:m\xa0\x93?'
p5349
tp5350
Rp5351
tp5352
a(I0
g10
(g14
S'\x138\x81\x138\x81\x93?'
p5353
tp5354
Rp5355
tp5356
a(I0
g10
(g14
S'\xbcV9\xd1\x15^\x93?'
p5357
tp5358
Rp5359
tp5360
a(I0
g10
(g14
S'\xc6\x92_,\xf9\xc5\x92?'
p5361
tp5362
Rp5363
tp5364
a(I0
g10
(g14
S"\xdf\x0f\xc6\xb4\xce'\x92?"
p5365
tp5366
Rp5367
tp5368
a(I0
g10
(g14
S'\xacR\xc4\xde\x85\xf7\x91?'
p5369
tp5370
Rp5371
tp5372
a(I0
g10
(g14
S',\xe7\xa2^\x1a\xd6\x91?'
p5373
tp5374
Rp5375
tp5376
a(I0
g10
(g14
S'&x0O\xd4\xbf\x91?'
p5377
tp5378
Rp5379
tp5380
a(I0
g10
(g14
S'4n\x16\x9a\xd4|\x90?'
p5381
tp5382
Rp5383
tp5384
a(I0
g10
(g14
S'\x14\xde\xcc\x1f\xb5p\x90?'
p5385
tp5386
Rp5387
tp5388
a(I0
g10
(g14
S'm\xa0\xd3\x06:m\x90?'
p5389
tp5390
Rp5391
tp5392
a(I0
g10
(g14
S'\x8a\xb3\x0f\x9faW\x90?'
p5393
tp5394
Rp5395
tp5396
a(I0
g10
(g14
S'\xfd\x9d\xac\x967F\x90?'
p5397
tp5398
Rp5399
tp5400
a(I0
g10
(g14
S'<\xb0\x81\xc7\xde;\x90?'
p5401
tp5402
Rp5403
tp5404
a(I0
g10
(g14
S'\x88f\x19\x8d\xdfc\x8d?'
p5405
tp5406
Rp5407
tp5408
a(I0
g10
(g14
S'\xbb\x97\x1d\x80!\x82\x8c?'
p5409
tp5410
Rp5411
tp5412
a(I0
g10
(g14
S'Z\xdc\xcf\xd4\xf0}\x8c?'
p5413
tp5414
Rp5415
tp5416
a(I0
g10
(g14
S'O\x1b\xe8\xb4\x81N\x8b?'
p5417
tp5418
Rp5419
tp5420
a(I0
g10
(g14
S'w\xb6q\xf2\xca\x1f\x8a?'
p5421
tp5422
Rp5423
tp5424
a(I0
g10
(g14
S'\x9a\x99\x99\x99\x99\x99\x89?'
p5425
tp5426
Rp5427
tp5428
a(I0
g10
(g14
S'\x9a\x99\x99\x99\x99\x99\x89?'
p5429
tp5430
Rp5431
tp5432
a(I0
g10
(g14
S'\x85\xd9[\x98\xbd\x85\x89?'
p5433
tp5434
Rp5435
tp5436
a(I0
g10
(g14
S'3\xca<f\xfdo\x89?'
p5437
tp5438
Rp5439
tp5440
a(I0
g10
(g14
S's\xc8 \xa6\xfbS\x89?'
p5441
tp5442
Rp5443
tp5444
a(I0
g10
(g14
S'\xae\x80*\x12\x1ds\x88?'
p5445
tp5446
Rp5447
tp5448
a(I0
g10
(g14
S'\n\xd7\xa3p=\n\x87?'
p5449
tp5450
Rp5451
tp5452
a(I0
g10
(g14
S'\xfd6\xd6\xc9\x03\xa3\x86?'
p5453
tp5454
Rp5455
tp5456
a(I0
g10
(g14
S'_\x9dT\x19\xc3\xa2\x86?'
p5457
tp5458
Rp5459
tp5460
a(I0
g10
(g14
S'\xbbI\x0c\x02+\x87\x86?'
p5461
tp5462
Rp5463
tp5464
a(I0
g10
(g14
S'\xaf\x15|\xe2H\xaf\x85?'
p5465
tp5466
Rp5467
tp5468
a(I0
g10
(g14
S'I\xc07\xaf&\x9e\x85?'
p5469
tp5470
Rp5471
tp5472
a(I0
g10
(g14
S'\xe3\xf0\xda{\x8at\x85?'
p5473
tp5474
Rp5475
tp5476
a(I0
g10
(g14
S'{\x14\xaeG\xe1z\x84?'
p5477
tp5478
Rp5479
tp5480
a(I0
g10
(g14
S'{\x14\xaeG\xe1z\x84?'
p5481
tp5482
Rp5483
tp5484
a(I0
g10
(g14
S'{\x14\xaeG\xe1z\x84?'
p5485
tp5486
Rp5487
tp5488
a(I0
g10
(g14
S'{\x14\xaeG\xe1z\x84?'
p5489
tp5490
Rp5491
tp5492
a(I0
g10
(g14
S'\xb6:&x0O\x84?'
p5493
tp5494
Rp5495
tp5496
a(I0
g10
(g14
S'\x8d\x13\xc98\x91\x8c\x83?'
p5497
tp5498
Rp5499
tp5500
a(I0
g10
(g14
S'\xecQ\xb8\x1e\x85\xeb\x81?'
p5501
tp5502
Rp5503
tp5504
a(I0
g10
(g14
S'\xd4\xfe\x0bE<\x16|?'
p5505
tp5506
Rp5507
tp5508
a(I0
g10
(g14
S'\x81|.NI\xfbz?'
p5509
tp5510
Rp5511
tp5512
a(I0
g10
(g14
S'{\x14\xaeG\xe1zt?'
p5513
tp5514
Rp5515
tp5516
a(I0
g10
(g14
S'\x86\xca\x0eS\x97\xdbo?'
p5517
tp5518
Rp5519
tp5520
a(I0
g10
(g14
S'\xee\xb7"\x9c\xff\x03g?'
p5521
tp5522
Rp5523
tp5524
a(I0
g10
(g14
S"D\x7f'\xab\xe5\x8da?"
p5525
tp5526
Rp5527
tp5528
a(I0
g10
(g14
S"D\x7f'\xab\xe5\x8da?"
p5529
tp5530
Rp5531
tp5532
a(I0
g10
(g14
S"D\x7f'\xab\xe5\x8da?"
p5533
tp5534
Rp5535
tp5536
a(I0
g10
(g14
S'N\x1b\xe8\xb4\x81NK?'
p5537
tp5538
Rp5539
tp5540
a(I0
g10
(g14
S'\xa5\xe2\xec\xc3g\xd8E?'
p5541
tp5542
Rp5543
tp5544
a(I0
g10
(g14
S'\x00\x00\x00\x00\x00\x00\x00\x00'
p5545
tp5546
Rp5547
tp5548
a(I0
g10
(g14
S'\x00\x00\x00\x00\x00\x00\x00\x00'
p5549
tp5550
Rp5551
tp5552
asS'derived_points'
p5553
(lp5554
(I0
I0
F0.0
tp5555
a(F0.0
F0.0023752969121140144
F0.0
tp5556
a(F0.0
F0.004750593824228029
F0.0
tp5557
a(F0.0
F0.007125890736342043
F0.0
tp5558
a(F0.0
F0.009501187648456057
F0.0
tp5559
a(F0.0
F0.011876484560570071
F0.0
tp5560
a(F0.0
F0.014251781472684086
F0.0
tp5561
a(F0.0
F0.0166270783847981
F0.0
tp5562
a(F0.0
F0.019002375296912115
F0.0
tp5563
a(F0.0
F0.021377672209026127
F0.0
tp5564
a(F0.0
F0.023752969121140142
F0.0
tp5565
a(F0.0
F0.026128266033254157
F0.0
tp5566
a(F0.0
F0.028503562945368172
F0.0
tp5567
a(F0.0
F0.030878859857482184
F0.0
tp5568
a(F0.0
F0.0332541567695962
F0.0
tp5569
a(F0.0
F0.035629453681710214
F0.0
tp5570
a(F0.0
F0.03800475059382423
F0.0
tp5571
a(F0.0
F0.040380047505938245
F0.0
tp5572
a(F0.0
F0.04275534441805225
F0.0
tp5573
a(F0.0
F0.04513064133016627
F0.0
tp5574
a(F0.0
F0.047505938242280284
F0.0
tp5575
a(F0.0
F0.0498812351543943
F0.0
tp5576
a(F0.0
F0.052256532066508314
F0.0
tp5577
a(F0.0
F0.05463182897862233
F0.0
tp5578
a(F0.0
F0.057007125890736345
F0.0
tp5579
a(F0.0
F0.05938242280285035
F0.0
tp5580
a(F0.0
F0.06175771971496437
F0.0
tp5581
a(F0.0
F0.06413301662707839
F0.0
tp5582
a(F0.0
F0.0665083135391924
F0.0
tp5583
a(F0.0
F0.0688836104513064
F0.0
tp5584
a(F0.0
F0.07125890736342043
F0.0
tp5585
a(F0.0
F0.07363420427553444
F0.0
tp5586
a(F0.0
F0.07600950118764846
F0.0
tp5587
a(F0.0
F0.07838479809976247
F0.0
tp5588
a(F0.0
F0.08076009501187649
F0.0
tp5589
a(F0.0
F0.0831353919239905
F0.0
tp5590
a(F0.0
F0.0855106888361045
F0.0
tp5591
a(F0.0
F0.08788598574821853
F0.0
tp5592
a(F0.0
F0.09026128266033254
F0.0
tp5593
a(F0.0
F0.09263657957244656
F0.0
tp5594
a(F0.0
F0.09501187648456057
F0.0
tp5595
a(F0.0
F0.09738717339667459
F0.0
tp5596
a(F0.0
F0.0997624703087886
F0.0
tp5597
a(F0.0
F0.1021377672209026
F0.0
tp5598
a(F0.0
F0.10451306413301663
F0.0
tp5599
a(F0.0
F0.10688836104513064
F0.0
tp5600
a(F0.0
F0.10926365795724466
F0.0
tp5601
a(F0.0
F0.11163895486935867
F0.0
tp5602
a(F0.0
F0.11401425178147269
F0.0
tp5603
a(F0.0
F0.1163895486935867
F0.0
tp5604
a(F0.0
F0.1187648456057007
F0.0
tp5605
a(F0.0
F0.12114014251781473
F0.0
tp5606
a(F0.0
F0.12351543942992874
F0.0
tp5607
a(F0.0
F0.12589073634204276
F0.0
tp5608
a(F0.0
F0.12826603325415678
F0.0
tp5609
a(F0.0
F0.13064133016627077
F0.0
tp5610
a(F0.0
F0.1330166270783848
F0.0
tp5611
a(F0.0
F0.13539192399049882
F0.0
tp5612
a(F0.0
F0.1377672209026128
F0.0
tp5613
a(F0.0
F0.14014251781472684
F0.0
tp5614
a(F0.0
F0.14251781472684086
F0.0
tp5615
a(F0.0
F0.14489311163895488
F0.0
tp5616
a(F0.0
F0.14726840855106887
F0.0
tp5617
a(F0.0
F0.1496437054631829
F0.0
tp5618
a(F0.0
F0.15201900237529692
F0.0
tp5619
a(F0.0
F0.1543942992874109
F0.0
tp5620
a(F0.0
F0.15676959619952494
F0.0
tp5621
a(F0.0
F0.15914489311163896
F0.0
tp5622
a(F0.0
F0.16152019002375298
F0.0
tp5623
a(F0.0
F0.16389548693586697
F0.0
tp5624
a(F0.0
F0.166270783847981
F0.0
tp5625
a(F0.0
F0.16864608076009502
F0.0
tp5626
a(F0.0
F0.171021377672209
F0.0
tp5627
a(F0.0
F0.17339667458432304
F0.0
tp5628
a(F0.0
F0.17577197149643706
F0.0
tp5629
a(F0.0
F0.17814726840855108
F0.0
tp5630
a(F0.0
F0.18052256532066507
F0.0
tp5631
a(F0.0
F0.1828978622327791
F0.0
tp5632
a(F0.0
F0.18527315914489312
F0.0
tp5633
a(F0.0
F0.1876484560570071
F0.0
tp5634
a(F0.0
F0.19002375296912113
F0.0
tp5635
a(F0.0
F0.19239904988123516
F0.0
tp5636
a(F0.0
F0.19477434679334918
F0.0
tp5637
a(F0.0
F0.19714964370546317
F0.0
tp5638
a(F0.0
F0.1995249406175772
F0.0
tp5639
a(F0.0
F0.20190023752969122
F0.0
tp5640
a(F0.0
F0.2042755344418052
F0.0
tp5641
a(F0.0
F0.20665083135391923
F0.0
tp5642
a(F0.0
F0.20902612826603326
F0.0
tp5643
a(F0.0
F0.21140142517814728
F0.0
tp5644
a(F0.0
F0.21377672209026127
F0.0
tp5645
a(F0.0
F0.2161520190023753
F0.0
tp5646
a(F0.0
F0.21852731591448932
F0.0
tp5647
a(F0.0
F0.2209026128266033
F0.0
tp5648
a(F0.0
F0.22327790973871733
F0.0
tp5649
a(F0.0
F0.22565320665083136
F0.0
tp5650
a(F0.0
F0.22802850356294538
F0.0
tp5651
a(F0.0
F0.23040380047505937
F0.0
tp5652
a(F0.0
F0.2327790973871734
F0.0
tp5653
a(F0.0
F0.23515439429928742
F0.0
tp5654
a(F0.0
F0.2375296912114014
F0.0
tp5655
a(F0.0010384215991692627
F0.2375296912114014
F1.0
tp5656
a(F0.0020768431983385254
F0.2375296912114014
F2.0
tp5657
a(F0.0020768431983385254
F0.23990498812351543
F2.0
tp5658
a(F0.0020768431983385254
F0.24228028503562946
F2.0
tp5659
a(F0.0020768431983385254
F0.24465558194774348
F2.0
tp5660
a(F0.0020768431983385254
F0.24703087885985747
F2.0
tp5661
a(F0.0020768431983385254
F0.2494061757719715
F2.0
tp5662
a(F0.0020768431983385254
F0.2517814726840855
F2.0
tp5663
a(F0.0020768431983385254
F0.25415676959619954
F2.0
tp5664
a(F0.0020768431983385254
F0.25653206650831356
F2.0
tp5665
a(F0.0020768431983385254
F0.2589073634204275
F2.0
tp5666
a(F0.0020768431983385254
F0.26128266033254155
F2.0
tp5667
a(F0.0020768431983385254
F0.26365795724465557
F2.0
tp5668
a(F0.0020768431983385254
F0.2660332541567696
F2.0
tp5669
a(F0.0020768431983385254
F0.2684085510688836
F2.0
tp5670
a(F0.0020768431983385254
F0.27078384798099764
F2.0
tp5671
a(F0.0020768431983385254
F0.27315914489311166
F2.0
tp5672
a(F0.0020768431983385254
F0.2755344418052256
F2.0
tp5673
a(F0.0020768431983385254
F0.27790973871733965
F2.0
tp5674
a(F0.0020768431983385254
F0.28028503562945367
F2.0
tp5675
a(F0.0020768431983385254
F0.2826603325415677
F2.0
tp5676
a(F0.0020768431983385254
F0.2850356294536817
F2.0
tp5677
a(F0.0020768431983385254
F0.28741092636579574
F2.0
tp5678
a(F0.0020768431983385254
F0.28978622327790976
F2.0
tp5679
a(F0.0020768431983385254
F0.2921615201900237
F2.0
tp5680
a(F0.0020768431983385254
F0.29453681710213775
F2.0
tp5681
a(F0.0020768431983385254
F0.29691211401425177
F2.0
tp5682
a(F0.0020768431983385254
F0.2992874109263658
F2.0
tp5683
a(F0.0020768431983385254
F0.3016627078384798
F2.0
tp5684
a(F0.0020768431983385254
F0.30403800475059384
F2.0
tp5685
a(F0.0020768431983385254
F0.30641330166270786
F2.0
tp5686
a(F0.0020768431983385254
F0.3087885985748218
F2.0
tp5687
a(F0.0020768431983385254
F0.31116389548693585
F2.0
tp5688
a(F0.0020768431983385254
F0.31353919239904987
F2.0
tp5689
a(F0.0020768431983385254
F0.3159144893111639
F2.0
tp5690
a(F0.0020768431983385254
F0.3182897862232779
F2.0
tp5691
a(F0.0020768431983385254
F0.32066508313539194
F2.0
tp5692
a(F0.0020768431983385254
F0.32304038004750596
F2.0
tp5693
a(F0.0020768431983385254
F0.3254156769596199
F2.0
tp5694
a(F0.0020768431983385254
F0.32779097387173395
F2.0
tp5695
a(F0.0020768431983385254
F0.33016627078384797
F2.0
tp5696
a(F0.0020768431983385254
F0.332541567695962
F2.0
tp5697
a(F0.0020768431983385254
F0.334916864608076
F2.0
tp5698
a(F0.0020768431983385254
F0.33729216152019004
F2.0
tp5699
a(F0.0020768431983385254
F0.33966745843230406
F2.0
tp5700
a(F0.0020768431983385254
F0.342042755344418
F2.0
tp5701
a(F0.0020768431983385254
F0.34441805225653205
F2.0
tp5702
a(F0.0020768431983385254
F0.34679334916864607
F2.0
tp5703
a(F0.0020768431983385254
F0.3491686460807601
F2.0
tp5704
a(F0.0020768431983385254
F0.3515439429928741
F2.0
tp5705
a(F0.0020768431983385254
F0.35391923990498814
F2.0
tp5706
a(F0.0020768431983385254
F0.35629453681710216
F2.0
tp5707
a(F0.0020768431983385254
F0.3586698337292161
F2.0
tp5708
a(F0.0020768431983385254
F0.36104513064133015
F2.0
tp5709
a(F0.0020768431983385254
F0.36342042755344417
F2.0
tp5710
a(F0.0020768431983385254
F0.3657957244655582
F2.0
tp5711
a(F0.0020768431983385254
F0.3681710213776722
F2.0
tp5712
a(F0.0020768431983385254
F0.37054631828978624
F2.0
tp5713
a(F0.0020768431983385254
F0.37292161520190026
F2.0
tp5714
a(F0.0020768431983385254
F0.3752969121140142
F2.0
tp5715
a(F0.0020768431983385254
F0.37767220902612825
F2.0
tp5716
a(F0.0020768431983385254
F0.38004750593824227
F2.0
tp5717
a(F0.0020768431983385254
F0.3824228028503563
F2.0
tp5718
a(F0.0020768431983385254
F0.3847980997624703
F2.0
tp5719
a(F0.0020768431983385254
F0.38717339667458434
F2.0
tp5720
a(F0.0020768431983385254
F0.38954869358669836
F2.0
tp5721
a(F0.0020768431983385254
F0.3919239904988123
F2.0
tp5722
a(F0.0020768431983385254
F0.39429928741092635
F2.0
tp5723
a(F0.0020768431983385254
F0.39667458432304037
F2.0
tp5724
a(F0.0020768431983385254
F0.3990498812351544
F2.0
tp5725
a(F0.0020768431983385254
F0.4014251781472684
F2.0
tp5726
a(F0.0020768431983385254
F0.40380047505938244
F2.0
tp5727
a(F0.0020768431983385254
F0.40617577197149646
F2.0
tp5728
a(F0.0020768431983385254
F0.4085510688836104
F2.0
tp5729
a(F0.0020768431983385254
F0.41092636579572445
F2.0
tp5730
a(F0.0020768431983385254
F0.41330166270783847
F2.0
tp5731
a(F0.0020768431983385254
F0.4156769596199525
F2.0
tp5732
a(F0.0020768431983385254
F0.4180522565320665
F2.0
tp5733
a(F0.0020768431983385254
F0.42042755344418054
F2.0
tp5734
a(F0.0020768431983385254
F0.42280285035629456
F2.0
tp5735
a(F0.0020768431983385254
F0.4251781472684085
F2.0
tp5736
a(F0.0020768431983385254
F0.42755344418052255
F2.0
tp5737
a(F0.0020768431983385254
F0.42992874109263657
F2.0
tp5738
a(F0.003115264797507788
F0.42992874109263657
F3.0
tp5739
a(F0.003115264797507788
F0.4323040380047506
F3.0
tp5740
a(F0.003115264797507788
F0.4346793349168646
F3.0
tp5741
a(F0.003115264797507788
F0.43705463182897863
F3.0
tp5742
a(F0.003115264797507788
F0.43942992874109266
F3.0
tp5743
a(F0.003115264797507788
F0.4418052256532066
F3.0
tp5744
a(F0.003115264797507788
F0.44418052256532065
F3.0
tp5745
a(F0.003115264797507788
F0.44655581947743467
F3.0
tp5746
a(F0.003115264797507788
F0.4489311163895487
F3.0
tp5747
a(F0.003115264797507788
F0.4513064133016627
F3.0
tp5748
a(F0.003115264797507788
F0.45368171021377673
F3.0
tp5749
a(F0.003115264797507788
F0.45605700712589076
F3.0
tp5750
a(F0.003115264797507788
F0.4584323040380047
F3.0
tp5751
a(F0.003115264797507788
F0.46080760095011875
F3.0
tp5752
a(F0.003115264797507788
F0.46318289786223277
F3.0
tp5753
a(F0.003115264797507788
F0.4655581947743468
F3.0
tp5754
a(F0.003115264797507788
F0.4679334916864608
F3.0
tp5755
a(F0.003115264797507788
F0.47030878859857483
F3.0
tp5756
a(F0.003115264797507788
F0.47268408551068886
F3.0
tp5757
a(F0.003115264797507788
F0.4750593824228028
F3.0
tp5758
a(F0.003115264797507788
F0.47743467933491684
F3.0
tp5759
a(F0.003115264797507788
F0.47980997624703087
F3.0
tp5760
a(F0.003115264797507788
F0.4821852731591449
F3.0
tp5761
a(F0.003115264797507788
F0.4845605700712589
F3.0
tp5762
a(F0.003115264797507788
F0.48693586698337293
F3.0
tp5763
a(F0.003115264797507788
F0.48931116389548696
F3.0
tp5764
a(F0.003115264797507788
F0.4916864608076009
F3.0
tp5765
a(F0.003115264797507788
F0.49406175771971494
F3.0
tp5766
a(F0.003115264797507788
F0.49643705463182897
F3.0
tp5767
a(F0.003115264797507788
F0.498812351543943
F3.0
tp5768
a(F0.003115264797507788
F0.501187648456057
F3.0
tp5769
a(F0.003115264797507788
F0.503562945368171
F3.0
tp5770
a(F0.003115264797507788
F0.505938242280285
F3.0
tp5771
a(F0.003115264797507788
F0.5083135391923991
F3.0
tp5772
a(F0.003115264797507788
F0.5106888361045131
F3.0
tp5773
a(F0.003115264797507788
F0.5130641330166271
F3.0
tp5774
a(F0.003115264797507788
F0.5154394299287411
F3.0
tp5775
a(F0.003115264797507788
F0.517814726840855
F3.0
tp5776
a(F0.003115264797507788
F0.5201900237529691
F3.0
tp5777
a(F0.003115264797507788
F0.5225653206650831
F3.0
tp5778
a(F0.003115264797507788
F0.5249406175771971
F3.0
tp5779
a(F0.003115264797507788
F0.5273159144893111
F3.0
tp5780
a(F0.003115264797507788
F0.5296912114014252
F3.0
tp5781
a(F0.003115264797507788
F0.5320665083135392
F3.0
tp5782
a(F0.003115264797507788
F0.5344418052256532
F3.0
tp5783
a(F0.003115264797507788
F0.5368171021377672
F3.0
tp5784
a(F0.003115264797507788
F0.5391923990498813
F3.0
tp5785
a(F0.003115264797507788
F0.5415676959619953
F3.0
tp5786
a(F0.003115264797507788
F0.5439429928741093
F3.0
tp5787
a(F0.003115264797507788
F0.5463182897862233
F3.0
tp5788
a(F0.003115264797507788
F0.5486935866983373
F3.0
tp5789
a(F0.003115264797507788
F0.5510688836104513
F3.0
tp5790
a(F0.003115264797507788
F0.5534441805225653
F3.0
tp5791
a(F0.003115264797507788
F0.5558194774346793
F3.0
tp5792
a(F0.003115264797507788
F0.5581947743467933
F3.0
tp5793
a(F0.003115264797507788
F0.5605700712589073
F3.0
tp5794
a(F0.003115264797507788
F0.5629453681710214
F3.0
tp5795
a(F0.003115264797507788
F0.5653206650831354
F3.0
tp5796
a(F0.003115264797507788
F0.5676959619952494
F3.0
tp5797
a(F0.003115264797507788
F0.5700712589073634
F3.0
tp5798
a(F0.003115264797507788
F0.5724465558194775
F3.0
tp5799
a(F0.003115264797507788
F0.5748218527315915
F3.0
tp5800
a(F0.003115264797507788
F0.5771971496437055
F3.0
tp5801
a(F0.003115264797507788
F0.5795724465558195
F3.0
tp5802
a(F0.003115264797507788
F0.5819477434679335
F3.0
tp5803
a(F0.003115264797507788
F0.5843230403800475
F3.0
tp5804
a(F0.003115264797507788
F0.5866983372921615
F3.0
tp5805
a(F0.003115264797507788
F0.5890736342042755
F3.0
tp5806
a(F0.003115264797507788
F0.5914489311163895
F3.0
tp5807
a(F0.003115264797507788
F0.5938242280285035
F3.0
tp5808
a(F0.003115264797507788
F0.5961995249406176
F3.0
tp5809
a(F0.003115264797507788
F0.5985748218527316
F3.0
tp5810
a(F0.003115264797507788
F0.6009501187648456
F3.0
tp5811
a(F0.003115264797507788
F0.6033254156769596
F3.0
tp5812
a(F0.003115264797507788
F0.6057007125890737
F3.0
tp5813
a(F0.003115264797507788
F0.6080760095011877
F3.0
tp5814
a(F0.003115264797507788
F0.6104513064133017
F3.0
tp5815
a(F0.003115264797507788
F0.6128266033254157
F3.0
tp5816
a(F0.003115264797507788
F0.6152019002375297
F3.0
tp5817
a(F0.003115264797507788
F0.6175771971496437
F3.0
tp5818
a(F0.003115264797507788
F0.6199524940617577
F3.0
tp5819
a(F0.003115264797507788
F0.6223277909738717
F3.0
tp5820
a(F0.003115264797507788
F0.6247030878859857
F3.0
tp5821
a(F0.003115264797507788
F0.6270783847980997
F3.0
tp5822
a(F0.003115264797507788
F0.6294536817102138
F3.0
tp5823
a(F0.003115264797507788
F0.6318289786223278
F3.0
tp5824
a(F0.003115264797507788
F0.6342042755344418
F3.0
tp5825
a(F0.003115264797507788
F0.6365795724465558
F3.0
tp5826
a(F0.003115264797507788
F0.6389548693586699
F3.0
tp5827
a(F0.003115264797507788
F0.6413301662707839
F3.0
tp5828
a(F0.003115264797507788
F0.6437054631828979
F3.0
tp5829
a(F0.003115264797507788
F0.6460807600950119
F3.0
tp5830
a(F0.003115264797507788
F0.6484560570071259
F3.0
tp5831
a(F0.003115264797507788
F0.6508313539192399
F3.0
tp5832
a(F0.003115264797507788
F0.6532066508313539
F3.0
tp5833
a(F0.003115264797507788
F0.6555819477434679
F3.0
tp5834
a(F0.003115264797507788
F0.6579572446555819
F3.0
tp5835
a(F0.003115264797507788
F0.6603325415676959
F3.0
tp5836
a(F0.003115264797507788
F0.66270783847981
F3.0
tp5837
a(F0.003115264797507788
F0.665083135391924
F3.0
tp5838
a(F0.003115264797507788
F0.667458432304038
F3.0
tp5839
a(F0.003115264797507788
F0.669833729216152
F3.0
tp5840
a(F0.003115264797507788
F0.672209026128266
F3.0
tp5841
a(F0.003115264797507788
F0.6745843230403801
F3.0
tp5842
a(F0.003115264797507788
F0.6769596199524941
F3.0
tp5843
a(F0.004153686396677051
F0.6769596199524941
F4.0
tp5844
a(F0.004153686396677051
F0.6793349168646081
F4.0
tp5845
a(F0.004153686396677051
F0.6817102137767221
F4.0
tp5846
a(F0.004153686396677051
F0.684085510688836
F4.0
tp5847
a(F0.004153686396677051
F0.6864608076009501
F4.0
tp5848
a(F0.004153686396677051
F0.6888361045130641
F4.0
tp5849
a(F0.004153686396677051
F0.6912114014251781
F4.0
tp5850
a(F0.004153686396677051
F0.6935866983372921
F4.0
tp5851
a(F0.005192107995846314
F0.6935866983372921
F5.0
tp5852
a(F0.005192107995846314
F0.6959619952494062
F5.0
tp5853
a(F0.005192107995846314
F0.6983372921615202
F5.0
tp5854
a(F0.005192107995846314
F0.7007125890736342
F5.0
tp5855
a(F0.005192107995846314
F0.7030878859857482
F5.0
tp5856
a(F0.005192107995846314
F0.7054631828978623
F5.0
tp5857
a(F0.005192107995846314
F0.7078384798099763
F5.0
tp5858
a(F0.005192107995846314
F0.7102137767220903
F5.0
tp5859
a(F0.005192107995846314
F0.7125890736342043
F5.0
tp5860
a(F0.005192107995846314
F0.7149643705463183
F5.0
tp5861
a(F0.005192107995846314
F0.7173396674584323
F5.0
tp5862
a(F0.005192107995846314
F0.7197149643705463
F5.0
tp5863
a(F0.005192107995846314
F0.7220902612826603
F5.0
tp5864
a(F0.005192107995846314
F0.7244655581947743
F5.0
tp5865
a(F0.005192107995846314
F0.7268408551068883
F5.0
tp5866
a(F0.005192107995846314
F0.7292161520190024
F5.0
tp5867
a(F0.005192107995846314
F0.7315914489311164
F5.0
tp5868
a(F0.005192107995846314
F0.7339667458432304
F5.0
tp5869
a(F0.005192107995846314
F0.7363420427553444
F5.0
tp5870
a(F0.005192107995846314
F0.7387173396674585
F5.0
tp5871
a(F0.005192107995846314
F0.7410926365795725
F5.0
tp5872
a(F0.005192107995846314
F0.7434679334916865
F5.0
tp5873
a(F0.005192107995846314
F0.7458432304038005
F5.0
tp5874
a(F0.005192107995846314
F0.7482185273159145
F5.0
tp5875
a(F0.005192107995846314
F0.7505938242280285
F5.0
tp5876
a(F0.005192107995846314
F0.7529691211401425
F5.0
tp5877
a(F0.005192107995846314
F0.7553444180522565
F5.0
tp5878
a(F0.005192107995846314
F0.7577197149643705
F5.0
tp5879
a(F0.005192107995846314
F0.7600950118764845
F5.0
tp5880
a(F0.005192107995846314
F0.7624703087885986
F5.0
tp5881
a(F0.005192107995846314
F0.7648456057007126
F5.0
tp5882
a(F0.005192107995846314
F0.7672209026128266
F5.0
tp5883
a(F0.005192107995846314
F0.7695961995249406
F5.0
tp5884
a(F0.005192107995846314
F0.7719714964370546
F5.0
tp5885
a(F0.005192107995846314
F0.7743467933491687
F5.0
tp5886
a(F0.005192107995846314
F0.7767220902612827
F5.0
tp5887
a(F0.005192107995846314
F0.7790973871733967
F5.0
tp5888
a(F0.006230529595015576
F0.7790973871733967
F6.0
tp5889
a(F0.006230529595015576
F0.7814726840855107
F6.0
tp5890
a(F0.006230529595015576
F0.7838479809976246
F6.0
tp5891
a(F0.006230529595015576
F0.7862232779097387
F6.0
tp5892
a(F0.006230529595015576
F0.7885985748218527
F6.0
tp5893
a(F0.006230529595015576
F0.7909738717339667
F6.0
tp5894
a(F0.006230529595015576
F0.7933491686460807
F6.0
tp5895
a(F0.006230529595015576
F0.7957244655581948
F6.0
tp5896
a(F0.006230529595015576
F0.7980997624703088
F6.0
tp5897
a(F0.006230529595015576
F0.8004750593824228
F6.0
tp5898
a(F0.006230529595015576
F0.8028503562945368
F6.0
tp5899
a(F0.006230529595015576
F0.8052256532066508
F6.0
tp5900
a(F0.006230529595015576
F0.8076009501187649
F6.0
tp5901
a(F0.006230529595015576
F0.8099762470308789
F6.0
tp5902
a(F0.006230529595015576
F0.8123515439429929
F6.0
tp5903
a(F0.006230529595015576
F0.8147268408551069
F6.0
tp5904
a(F0.006230529595015576
F0.8171021377672208
F6.0
tp5905
a(F0.006230529595015576
F0.8194774346793349
F6.0
tp5906
a(F0.006230529595015576
F0.8218527315914489
F6.0
tp5907
a(F0.006230529595015576
F0.8242280285035629
F6.0
tp5908
a(F0.006230529595015576
F0.8266033254156769
F6.0
tp5909
a(F0.006230529595015576
F0.828978622327791
F6.0
tp5910
a(F0.006230529595015576
F0.831353919239905
F6.0
tp5911
a(F0.006230529595015576
F0.833729216152019
F6.0
tp5912
a(F0.007268951194184839
F0.833729216152019
F7.0
tp5913
a(F0.007268951194184839
F0.836104513064133
F7.0
tp5914
a(F0.007268951194184839
F0.838479809976247
F7.0
tp5915
a(F0.007268951194184839
F0.8408551068883611
F7.0
tp5916
a(F0.007268951194184839
F0.8432304038004751
F7.0
tp5917
a(F0.007268951194184839
F0.8456057007125891
F7.0
tp5918
a(F0.007268951194184839
F0.8479809976247031
F7.0
tp5919
a(F0.007268951194184839
F0.850356294536817
F7.0
tp5920
a(F0.007268951194184839
F0.8527315914489311
F7.0
tp5921
a(F0.007268951194184839
F0.8551068883610451
F7.0
tp5922
a(F0.007268951194184839
F0.8574821852731591
F7.0
tp5923
a(F0.007268951194184839
F0.8598574821852731
F7.0
tp5924
a(F0.008307372793354102
F0.8598574821852731
F8.0
tp5925
a(F0.009345794392523364
F0.8598574821852731
F9.0
tp5926
a(F0.009345794392523364
F0.8622327790973872
F9.0
tp5927
a(F0.009345794392523364
F0.8646080760095012
F9.0
tp5928
a(F0.010384215991692628
F0.8646080760095012
F10.0
tp5929
a(F0.01142263759086189
F0.8646080760095012
F11.0
tp5930
a(F0.012461059190031152
F0.8646080760095012
F12.0
tp5931
a(F0.012461059190031152
F0.8669833729216152
F12.0
tp5932
a(F0.012461059190031152
F0.8693586698337292
F12.0
tp5933
a(F0.012461059190031152
F0.8717339667458432
F12.0
tp5934
a(F0.013499480789200415
F0.8717339667458432
F13.0
tp5935
a(F0.013499480789200415
F0.8741092636579573
F13.0
tp5936
a(F0.013499480789200415
F0.8764845605700713
F13.0
tp5937
a(F0.013499480789200415
F0.8788598574821853
F13.0
tp5938
a(F0.013499480789200415
F0.8812351543942993
F13.0
tp5939
a(F0.013499480789200415
F0.8836104513064132
F13.0
tp5940
a(F0.013499480789200415
F0.8859857482185273
F13.0
tp5941
a(F0.014537902388369679
F0.8859857482185273
F14.0
tp5942
a(F0.01557632398753894
F0.8859857482185273
F15.0
tp5943
a(F0.016614745586708203
F0.8859857482185273
F16.0
tp5944
a(F0.017653167185877467
F0.8859857482185273
F17.0
tp5945
a(F0.017653167185877467
F0.8883610451306413
F17.0
tp5946
a(F0.018691588785046728
F0.8883610451306413
F18.0
tp5947
a(F0.018691588785046728
F0.8907363420427553
F18.0
tp5948
a(F0.018691588785046728
F0.8931116389548693
F18.0
tp5949
a(F0.018691588785046728
F0.8954869358669834
F18.0
tp5950
a(F0.01973001038421599
F0.8954869358669834
F19.0
tp5951
a(F0.01973001038421599
F0.8978622327790974
F19.0
tp5952
a(F0.01973001038421599
F0.9002375296912114
F19.0
tp5953
a(F0.01973001038421599
F0.9026128266033254
F19.0
tp5954
a(F0.01973001038421599
F0.9049881235154394
F19.0
tp5955
a(F0.01973001038421599
F0.9073634204275535
F19.0
tp5956
a(F0.020768431983385256
F0.9073634204275535
F20.0
tp5957
a(F0.021806853582554516
F0.9073634204275535
F21.0
tp5958
a(F0.021806853582554516
F0.9097387173396675
F21.0
tp5959
a(F0.02284527518172378
F0.9097387173396675
F22.0
tp5960
a(F0.023883696780893044
F0.9097387173396675
F23.0
tp5961
a(F0.023883696780893044
F0.9121140142517815
F23.0
tp5962
a(F0.023883696780893044
F0.9144893111638955
F23.0
tp5963
a(F0.023883696780893044
F0.9168646080760094
F23.0
tp5964
a(F0.024922118380062305
F0.9168646080760094
F24.0
tp5965
a(F0.02596053997923157
F0.9168646080760094
F25.0
tp5966
a(F0.02699896157840083
F0.9168646080760094
F26.0
tp5967
a(F0.02699896157840083
F0.9192399049881235
F26.0
tp5968
a(F0.02699896157840083
F0.9216152019002375
F26.0
tp5969
a(F0.028037383177570093
F0.9216152019002375
F27.0
tp5970
a(F0.028037383177570093
F0.9239904988123515
F27.0
tp5971
a(F0.029075804776739357
F0.9239904988123515
F28.0
tp5972
a(F0.029075804776739357
F0.9263657957244655
F28.0
tp5973
a(F0.029075804776739357
F0.9287410926365796
F28.0
tp5974
a(F0.029075804776739357
F0.9311163895486936
F28.0
tp5975
a(F0.030114226375908618
F0.9311163895486936
F29.0
tp5976
a(F0.03115264797507788
F0.9311163895486936
F30.0
tp5977
a(F0.032191069574247146
F0.9311163895486936
F31.0
tp5978
a(F0.033229491173416406
F0.9311163895486936
F32.0
tp5979
a(F0.033229491173416406
F0.9334916864608076
F32.0
tp5980
a(F0.03426791277258567
F0.9334916864608076
F33.0
tp5981
a(F0.035306334371754934
F0.9334916864608076
F34.0
tp5982
a(F0.035306334371754934
F0.9358669833729216
F34.0
tp5983
a(F0.036344755970924195
F0.9358669833729216
F35.0
tp5984
a(F0.036344755970924195
F0.9382422802850356
F35.0
tp5985
a(F0.037383177570093455
F0.9382422802850356
F36.0
tp5986
a(F0.03842159916926272
F0.9382422802850356
F37.0
tp5987
a(F0.03946002076843198
F0.9382422802850356
F38.0
tp5988
a(F0.03946002076843198
F0.9406175771971497
F38.0
tp5989
a(F0.03946002076843198
F0.9429928741092637
F38.0
tp5990
a(F0.040498442367601244
F0.9429928741092637
F39.0
tp5991
a(F0.040498442367601244
F0.9453681710213777
F39.0
tp5992
a(F0.04153686396677051
F0.9453681710213777
F40.0
tp5993
a(F0.04153686396677051
F0.9477434679334917
F40.0
tp5994
a(F0.04257528556593977
F0.9477434679334917
F41.0
tp5995
a(F0.04361370716510903
F0.9477434679334917
F42.0
tp5996
a(F0.0446521287642783
F0.9477434679334917
F43.0
tp5997
a(F0.0446521287642783
F0.9501187648456056
F43.0
tp5998
a(F0.0446521287642783
F0.9524940617577197
F43.0
tp5999
a(F0.04569055036344756
F0.9524940617577197
F44.0
tp6000
a(F0.04569055036344756
F0.9548693586698337
F44.0
tp6001
a(F0.04672897196261682
F0.9548693586698337
F45.0
tp6002
a(F0.04776739356178609
F0.9548693586698337
F46.0
tp6003
a(F0.04880581516095535
F0.9548693586698337
F47.0
tp6004
a(F0.04984423676012461
F0.9548693586698337
F48.0
tp6005
a(F0.05088265835929388
F0.9548693586698337
F49.0
tp6006
a(F0.05192107995846314
F0.9548693586698337
F50.0
tp6007
a(F0.0529595015576324
F0.9548693586698337
F51.0
tp6008
a(F0.0529595015576324
F0.9572446555819477
F51.0
tp6009
a(F0.05399792315680166
F0.9572446555819477
F52.0
tp6010
a(F0.055036344755970926
F0.9572446555819477
F53.0
tp6011
a(F0.056074766355140186
F0.9572446555819477
F54.0
tp6012
a(F0.05711318795430945
F0.9572446555819477
F55.0
tp6013
a(F0.058151609553478714
F0.9572446555819477
F56.0
tp6014
a(F0.059190031152647975
F0.9572446555819477
F57.0
tp6015
a(F0.060228452751817235
F0.9572446555819477
F58.0
tp6016
a(F0.0612668743509865
F0.9572446555819477
F59.0
tp6017
a(F0.06230529595015576
F0.9572446555819477
F60.0
tp6018
a(F0.06334371754932502
F0.9572446555819477
F61.0
tp6019
a(F0.06334371754932502
F0.9596199524940617
F61.0
tp6020
a(F0.06438213914849429
F0.9596199524940617
F62.0
tp6021
a(F0.06542056074766354
F0.9596199524940617
F63.0
tp6022
a(F0.06645898234683281
F0.9596199524940617
F64.0
tp6023
a(F0.06749740394600208
F0.9596199524940617
F65.0
tp6024
a(F0.06853582554517133
F0.9596199524940617
F66.0
tp6025
a(F0.0695742471443406
F0.9596199524940617
F67.0
tp6026
a(F0.0695742471443406
F0.9619952494061758
F67.0
tp6027
a(F0.07061266874350987
F0.9619952494061758
F68.0
tp6028
a(F0.07165109034267912
F0.9619952494061758
F69.0
tp6029
a(F0.07268951194184839
F0.9619952494061758
F70.0
tp6030
a(F0.07372793354101766
F0.9619952494061758
F71.0
tp6031
a(F0.07476635514018691
F0.9619952494061758
F72.0
tp6032
a(F0.07580477673935618
F0.9619952494061758
F73.0
tp6033
a(F0.07580477673935618
F0.9643705463182898
F73.0
tp6034
a(F0.07684319833852545
F0.9643705463182898
F74.0
tp6035
a(F0.0778816199376947
F0.9643705463182898
F75.0
tp6036
a(F0.07892004153686397
F0.9643705463182898
F76.0
tp6037
a(F0.07995846313603323
F0.9643705463182898
F77.0
tp6038
a(F0.08099688473520249
F0.9643705463182898
F78.0
tp6039
a(F0.08099688473520249
F0.9667458432304038
F78.0
tp6040
a(F0.08203530633437175
F0.9667458432304038
F79.0
tp6041
a(F0.08307372793354102
F0.9667458432304038
F80.0
tp6042
a(F0.08307372793354102
F0.9691211401425178
F80.0
tp6043
a(F0.08411214953271028
F0.9691211401425178
F81.0
tp6044
a(F0.08515057113187954
F0.9691211401425178
F82.0
tp6045
a(F0.08618899273104881
F0.9691211401425178
F83.0
tp6046
a(F0.08618899273104881
F0.9714964370546318
F83.0
tp6047
a(F0.08722741433021806
F0.9714964370546318
F84.0
tp6048
a(F0.08826583592938733
F0.9714964370546318
F85.0
tp6049
a(F0.0893042575285566
F0.9714964370546318
F86.0
tp6050
a(F0.09034267912772585
F0.9714964370546318
F87.0
tp6051
a(F0.09138110072689512
F0.9714964370546318
F88.0
tp6052
a(F0.09241952232606439
F0.9714964370546318
F89.0
tp6053
a(F0.09345794392523364
F0.9714964370546318
F90.0
tp6054
a(F0.09449636552440291
F0.9714964370546318
F91.0
tp6055
a(F0.09553478712357218
F0.9714964370546318
F92.0
tp6056
a(F0.09657320872274143
F0.9714964370546318
F93.0
tp6057
a(F0.0976116303219107
F0.9714964370546318
F94.0
tp6058
a(F0.09865005192107996
F0.9714964370546318
F95.0
tp6059
a(F0.09968847352024922
F0.9714964370546318
F96.0
tp6060
a(F0.10072689511941849
F0.9714964370546318
F97.0
tp6061
a(F0.10176531671858775
F0.9714964370546318
F98.0
tp6062
a(F0.10176531671858775
F0.9738717339667459
F98.0
tp6063
a(F0.102803738317757
F0.9738717339667459
F99.0
tp6064
a(F0.10384215991692627
F0.9738717339667459
F100.0
tp6065
a(F0.10488058151609553
F0.9738717339667459
F101.0
tp6066
a(F0.1059190031152648
F0.9738717339667459
F102.0
tp6067
a(F0.10695742471443406
F0.9738717339667459
F103.0
tp6068
a(F0.10799584631360332
F0.9738717339667459
F104.0
tp6069
a(F0.10903426791277258
F0.9738717339667459
F105.0
tp6070
a(F0.11007268951194185
F0.9738717339667459
F106.0
tp6071
a(F0.1111111111111111
F0.9738717339667459
F107.0
tp6072
a(F0.11214953271028037
F0.9738717339667459
F108.0
tp6073
a(F0.11318795430944964
F0.9738717339667459
F109.0
tp6074
a(F0.1142263759086189
F0.9738717339667459
F110.0
tp6075
a(F0.11526479750778816
F0.9738717339667459
F111.0
tp6076
a(F0.11630321910695743
F0.9738717339667459
F112.0
tp6077
a(F0.11734164070612668
F0.9738717339667459
F113.0
tp6078
a(F0.11838006230529595
F0.9738717339667459
F114.0
tp6079
a(F0.11941848390446522
F0.9738717339667459
F115.0
tp6080
a(F0.12045690550363447
F0.9738717339667459
F116.0
tp6081
a(F0.12149532710280374
F0.9738717339667459
F117.0
tp6082
a(F0.122533748701973
F0.9738717339667459
F118.0
tp6083
a(F0.12357217030114226
F0.9738717339667459
F119.0
tp6084
a(F0.12461059190031153
F0.9738717339667459
F120.0
tp6085
a(F0.1256490134994808
F0.9738717339667459
F121.0
tp6086
a(F0.12668743509865005
F0.9738717339667459
F122.0
tp6087
a(F0.1277258566978193
F0.9738717339667459
F123.0
tp6088
a(F0.12876427829698858
F0.9738717339667459
F124.0
tp6089
a(F0.12876427829698858
F0.9762470308788599
F124.0
tp6090
a(F0.12980269989615784
F0.9762470308788599
F125.0
tp6091
a(F0.1308411214953271
F0.9762470308788599
F126.0
tp6092
a(F0.1308411214953271
F0.9786223277909739
F126.0
tp6093
a(F0.1308411214953271
F0.9809976247030879
F126.0
tp6094
a(F0.13187954309449637
F0.9809976247030879
F127.0
tp6095
a(F0.13291796469366562
F0.9809976247030879
F128.0
tp6096
a(F0.13395638629283488
F0.9809976247030879
F129.0
tp6097
a(F0.13395638629283488
F0.9833729216152018
F129.0
tp6098
a(F0.13499480789200416
F0.9833729216152018
F130.0
tp6099
a(F0.1360332294911734
F0.9833729216152018
F131.0
tp6100
a(F0.13707165109034267
F0.9833729216152018
F132.0
tp6101
a(F0.13811007268951195
F0.9833729216152018
F133.0
tp6102
a(F0.1391484942886812
F0.9833729216152018
F134.0
tp6103
a(F0.14018691588785046
F0.9833729216152018
F135.0
tp6104
a(F0.14122533748701974
F0.9833729216152018
F136.0
tp6105
a(F0.142263759086189
F0.9833729216152018
F137.0
tp6106
a(F0.14330218068535824
F0.9833729216152018
F138.0
tp6107
a(F0.14434060228452752
F0.9833729216152018
F139.0
tp6108
a(F0.14434060228452752
F0.9857482185273159
F139.0
tp6109
a(F0.14537902388369678
F0.9857482185273159
F140.0
tp6110
a(F0.14641744548286603
F0.9857482185273159
F141.0
tp6111
a(F0.1474558670820353
F0.9857482185273159
F142.0
tp6112
a(F0.14849428868120457
F0.9857482185273159
F143.0
tp6113
a(F0.14953271028037382
F0.9857482185273159
F144.0
tp6114
a(F0.1505711318795431
F0.9857482185273159
F145.0
tp6115
a(F0.15160955347871236
F0.9857482185273159
F146.0
tp6116
a(F0.1526479750778816
F0.9857482185273159
F147.0
tp6117
a(F0.1536863966770509
F0.9857482185273159
F148.0
tp6118
a(F0.15472481827622014
F0.9857482185273159
F149.0
tp6119
a(F0.1557632398753894
F0.9857482185273159
F150.0
tp6120
a(F0.1557632398753894
F0.9881235154394299
F150.0
tp6121
a(F0.15680166147455868
F0.9881235154394299
F151.0
tp6122
a(F0.15784008307372793
F0.9881235154394299
F152.0
tp6123
a(F0.1588785046728972
F0.9881235154394299
F153.0
tp6124
a(F0.15991692627206647
F0.9881235154394299
F154.0
tp6125
a(F0.16095534787123572
F0.9881235154394299
F155.0
tp6126
a(F0.16199376947040497
F0.9881235154394299
F156.0
tp6127
a(F0.16303219106957426
F0.9881235154394299
F157.0
tp6128
a(F0.1640706126687435
F0.9881235154394299
F158.0
tp6129
a(F0.16510903426791276
F0.9881235154394299
F159.0
tp6130
a(F0.16614745586708204
F0.9881235154394299
F160.0
tp6131
a(F0.1671858774662513
F0.9881235154394299
F161.0
tp6132
a(F0.16822429906542055
F0.9881235154394299
F162.0
tp6133
a(F0.16926272066458983
F0.9881235154394299
F163.0
tp6134
a(F0.1703011422637591
F0.9881235154394299
F164.0
tp6135
a(F0.17133956386292834
F0.9881235154394299
F165.0
tp6136
a(F0.17237798546209762
F0.9881235154394299
F166.0
tp6137
a(F0.17341640706126688
F0.9881235154394299
F167.0
tp6138
a(F0.17445482866043613
F0.9881235154394299
F168.0
tp6139
a(F0.1754932502596054
F0.9881235154394299
F169.0
tp6140
a(F0.17653167185877466
F0.9881235154394299
F170.0
tp6141
a(F0.17757009345794392
F0.9881235154394299
F171.0
tp6142
a(F0.1786085150571132
F0.9881235154394299
F172.0
tp6143
a(F0.17964693665628245
F0.9881235154394299
F173.0
tp6144
a(F0.1806853582554517
F0.9881235154394299
F174.0
tp6145
a(F0.181723779854621
F0.9881235154394299
F175.0
tp6146
a(F0.18276220145379024
F0.9881235154394299
F176.0
tp6147
a(F0.1838006230529595
F0.9881235154394299
F177.0
tp6148
a(F0.18483904465212878
F0.9881235154394299
F178.0
tp6149
a(F0.18587746625129803
F0.9881235154394299
F179.0
tp6150
a(F0.18691588785046728
F0.9881235154394299
F180.0
tp6151
a(F0.18795430944963656
F0.9881235154394299
F181.0
tp6152
a(F0.18899273104880582
F0.9881235154394299
F182.0
tp6153
a(F0.19003115264797507
F0.9881235154394299
F183.0
tp6154
a(F0.19106957424714435
F0.9881235154394299
F184.0
tp6155
a(F0.1921079958463136
F0.9881235154394299
F185.0
tp6156
a(F0.19314641744548286
F0.9881235154394299
F186.0
tp6157
a(F0.19418483904465214
F0.9881235154394299
F187.0
tp6158
a(F0.1952232606438214
F0.9881235154394299
F188.0
tp6159
a(F0.19626168224299065
F0.9881235154394299
F189.0
tp6160
a(F0.19730010384215993
F0.9881235154394299
F190.0
tp6161
a(F0.19833852544132918
F0.9881235154394299
F191.0
tp6162
a(F0.19937694704049844
F0.9881235154394299
F192.0
tp6163
a(F0.20041536863966772
F0.9881235154394299
F193.0
tp6164
a(F0.20145379023883697
F0.9881235154394299
F194.0
tp6165
a(F0.20249221183800623
F0.9881235154394299
F195.0
tp6166
a(F0.2035306334371755
F0.9881235154394299
F196.0
tp6167
a(F0.20456905503634476
F0.9881235154394299
F197.0
tp6168
a(F0.205607476635514
F0.9881235154394299
F198.0
tp6169
a(F0.205607476635514
F0.9904988123515439
F198.0
tp6170
a(F0.2066458982346833
F0.9904988123515439
F199.0
tp6171
a(F0.20768431983385255
F0.9904988123515439
F200.0
tp6172
a(F0.2087227414330218
F0.9904988123515439
F201.0
tp6173
a(F0.20976116303219106
F0.9904988123515439
F202.0
tp6174
a(F0.21079958463136034
F0.9904988123515439
F203.0
tp6175
a(F0.2118380062305296
F0.9904988123515439
F204.0
tp6176
a(F0.21287642782969884
F0.9904988123515439
F205.0
tp6177
a(F0.21391484942886813
F0.9904988123515439
F206.0
tp6178
a(F0.21495327102803738
F0.9904988123515439
F207.0
tp6179
a(F0.21495327102803738
F0.9928741092636579
F207.0
tp6180
a(F0.21599169262720663
F0.9928741092636579
F208.0
tp6181
a(F0.21703011422637591
F0.9928741092636579
F209.0
tp6182
a(F0.21703011422637591
F0.995249406175772
F209.0
tp6183
a(F0.21806853582554517
F0.995249406175772
F210.0
tp6184
a(F0.21910695742471442
F0.995249406175772
F211.0
tp6185
a(F0.2201453790238837
F0.995249406175772
F212.0
tp6186
a(F0.22118380062305296
F0.995249406175772
F213.0
tp6187
a(F0.2222222222222222
F0.995249406175772
F214.0
tp6188
a(F0.2232606438213915
F0.995249406175772
F215.0
tp6189
a(F0.22429906542056074
F0.995249406175772
F216.0
tp6190
a(F0.22533748701973
F0.995249406175772
F217.0
tp6191
a(F0.22637590861889928
F0.995249406175772
F218.0
tp6192
a(F0.22741433021806853
F0.995249406175772
F219.0
tp6193
a(F0.22741433021806853
F0.997624703087886
F219.0
tp6194
a(F0.2284527518172378
F0.997624703087886
F220.0
tp6195
a(F0.22949117341640707
F0.997624703087886
F221.0
tp6196
a(F0.23052959501557632
F0.997624703087886
F222.0
tp6197
a(F0.23156801661474558
F0.997624703087886
F223.0
tp6198
a(F0.23260643821391486
F0.997624703087886
F224.0
tp6199
a(F0.2336448598130841
F0.997624703087886
F225.0
tp6200
a(F0.23468328141225336
F0.997624703087886
F226.0
tp6201
a(F0.23572170301142265
F0.997624703087886
F227.0
tp6202
a(F0.2367601246105919
F0.997624703087886
F228.0
tp6203
a(F0.23779854620976115
F0.997624703087886
F229.0
tp6204
a(F0.23883696780893043
F0.997624703087886
F230.0
tp6205
a(F0.2398753894080997
F0.997624703087886
F231.0
tp6206
a(F0.24091381100726894
F0.997624703087886
F232.0
tp6207
a(F0.24195223260643822
F0.997624703087886
F233.0
tp6208
a(F0.24299065420560748
F0.997624703087886
F234.0
tp6209
a(F0.24402907580477673
F0.997624703087886
F235.0
tp6210
a(F0.245067497403946
F0.997624703087886
F236.0
tp6211
a(F0.24610591900311526
F0.997624703087886
F237.0
tp6212
a(F0.24714434060228452
F0.997624703087886
F238.0
tp6213
a(F0.2481827622014538
F0.997624703087886
F239.0
tp6214
a(F0.24922118380062305
F0.997624703087886
F240.0
tp6215
a(F0.2502596053997923
F0.997624703087886
F241.0
tp6216
a(F0.2512980269989616
F0.997624703087886
F242.0
tp6217
a(F0.2523364485981308
F0.997624703087886
F243.0
tp6218
a(F0.2533748701973001
F0.997624703087886
F244.0
tp6219
a(F0.2544132917964694
F0.997624703087886
F245.0
tp6220
a(F0.2554517133956386
F0.997624703087886
F246.0
tp6221
a(F0.2564901349948079
F0.997624703087886
F247.0
tp6222
a(F0.25752855659397716
F0.997624703087886
F248.0
tp6223
a(F0.2585669781931464
F0.997624703087886
F249.0
tp6224
a(F0.25960539979231567
F0.997624703087886
F250.0
tp6225
a(F0.26064382139148495
F0.997624703087886
F251.0
tp6226
a(F0.2616822429906542
F0.997624703087886
F252.0
tp6227
a(F0.26272066458982346
F0.997624703087886
F253.0
tp6228
a(F0.26375908618899274
F0.997624703087886
F254.0
tp6229
a(F0.26479750778816197
F0.997624703087886
F255.0
tp6230
a(F0.26583592938733125
F0.997624703087886
F256.0
tp6231
a(F0.26687435098650053
F0.997624703087886
F257.0
tp6232
a(F0.26791277258566976
F0.997624703087886
F258.0
tp6233
a(F0.26791277258566976
F1.0
F258.0
tp6234
a(F0.26895119418483904
F1.0
F259.0
tp6235
a(F0.2699896157840083
F1.0
F260.0
tp6236
a(F0.27102803738317754
F1.0
F261.0
tp6237
a(F0.2720664589823468
F1.0
F262.0
tp6238
a(F0.2731048805815161
F1.0
F263.0
tp6239
a(F0.27414330218068533
F1.0
F264.0
tp6240
a(F0.2751817237798546
F1.0
F265.0
tp6241
a(F0.2762201453790239
F1.0
F266.0
tp6242
a(F0.2772585669781931
F1.0
F267.0
tp6243
a(F0.2782969885773624
F1.0
F268.0
tp6244
a(F0.2793354101765317
F1.0
F269.0
tp6245
a(F0.2803738317757009
F1.0
F270.0
tp6246
a(F0.2814122533748702
F1.0
F271.0
tp6247
a(F0.2824506749740395
F1.0
F272.0
tp6248
a(F0.2834890965732087
F1.0
F273.0
tp6249
a(F0.284527518172378
F1.0
F274.0
tp6250
a(F0.28556593977154726
F1.0
F275.0
tp6251
a(F0.2866043613707165
F1.0
F276.0
tp6252
a(F0.28764278296988577
F1.0
F277.0
tp6253
a(F0.28868120456905505
F1.0
F278.0
tp6254
a(F0.2897196261682243
F1.0
F279.0
tp6255
a(F0.29075804776739356
F1.0
F280.0
tp6256
a(F0.29179646936656284
F1.0
F281.0
tp6257
a(F0.29283489096573206
F1.0
F282.0
tp6258
a(F0.29387331256490135
F1.0
F283.0
tp6259
a(F0.2949117341640706
F1.0
F284.0
tp6260
a(F0.29595015576323985
F1.0
F285.0
tp6261
a(F0.29698857736240913
F1.0
F286.0
tp6262
a(F0.2980269989615784
F1.0
F287.0
tp6263
a(F0.29906542056074764
F1.0
F288.0
tp6264
a(F0.3001038421599169
F1.0
F289.0
tp6265
a(F0.3011422637590862
F1.0
F290.0
tp6266
a(F0.30218068535825543
F1.0
F291.0
tp6267
a(F0.3032191069574247
F1.0
F292.0
tp6268
a(F0.304257528556594
F1.0
F293.0
tp6269
a(F0.3052959501557632
F1.0
F294.0
tp6270
a(F0.3063343717549325
F1.0
F295.0
tp6271
a(F0.3073727933541018
F1.0
F296.0
tp6272
a(F0.308411214953271
F1.0
F297.0
tp6273
a(F0.3094496365524403
F1.0
F298.0
tp6274
a(F0.31048805815160957
F1.0
F299.0
tp6275
a(F0.3115264797507788
F1.0
F300.0
tp6276
a(F0.3125649013499481
F1.0
F301.0
tp6277
a(F0.31360332294911736
F1.0
F302.0
tp6278
a(F0.3146417445482866
F1.0
F303.0
tp6279
a(F0.31568016614745587
F1.0
F304.0
tp6280
a(F0.31671858774662515
F1.0
F305.0
tp6281
a(F0.3177570093457944
F1.0
F306.0
tp6282
a(F0.31879543094496365
F1.0
F307.0
tp6283
a(F0.31983385254413293
F1.0
F308.0
tp6284
a(F0.32087227414330216
F1.0
F309.0
tp6285
a(F0.32191069574247144
F1.0
F310.0
tp6286
a(F0.3229491173416407
F1.0
F311.0
tp6287
a(F0.32398753894080995
F1.0
F312.0
tp6288
a(F0.32502596053997923
F1.0
F313.0
tp6289
a(F0.3260643821391485
F1.0
F314.0
tp6290
a(F0.32710280373831774
F1.0
F315.0
tp6291
a(F0.328141225337487
F1.0
F316.0
tp6292
a(F0.3291796469366563
F1.0
F317.0
tp6293
a(F0.3302180685358255
F1.0
F318.0
tp6294
a(F0.3312564901349948
F1.0
F319.0
tp6295
a(F0.3322949117341641
F1.0
F320.0
tp6296
a(F0.3333333333333333
F1.0
F321.0
tp6297
a(F0.3343717549325026
F1.0
F322.0
tp6298
a(F0.3354101765316719
F1.0
F323.0
tp6299
a(F0.3364485981308411
F1.0
F324.0
tp6300
a(F0.3374870197300104
F1.0
F325.0
tp6301
a(F0.33852544132917967
F1.0
F326.0
tp6302
a(F0.3395638629283489
F1.0
F327.0
tp6303
a(F0.3406022845275182
F1.0
F328.0
tp6304
a(F0.34164070612668745
F1.0
F329.0
tp6305
a(F0.3426791277258567
F1.0
F330.0
tp6306
a(F0.34371754932502596
F1.0
F331.0
tp6307
a(F0.34475597092419524
F1.0
F332.0
tp6308
a(F0.34579439252336447
F1.0
F333.0
tp6309
a(F0.34683281412253375
F1.0
F334.0
tp6310
a(F0.34787123572170303
F1.0
F335.0
tp6311
a(F0.34890965732087226
F1.0
F336.0
tp6312
a(F0.34994807892004154
F1.0
F337.0
tp6313
a(F0.3509865005192108
F1.0
F338.0
tp6314
a(F0.35202492211838005
F1.0
F339.0
tp6315
a(F0.3530633437175493
F1.0
F340.0
tp6316
a(F0.3541017653167186
F1.0
F341.0
tp6317
a(F0.35514018691588783
F1.0
F342.0
tp6318
a(F0.3561786085150571
F1.0
F343.0
tp6319
a(F0.3572170301142264
F1.0
F344.0
tp6320
a(F0.3582554517133956
F1.0
F345.0
tp6321
a(F0.3592938733125649
F1.0
F346.0
tp6322
a(F0.3603322949117342
F1.0
F347.0
tp6323
a(F0.3613707165109034
F1.0
F348.0
tp6324
a(F0.3624091381100727
F1.0
F349.0
tp6325
a(F0.363447559709242
F1.0
F350.0
tp6326
a(F0.3644859813084112
F1.0
F351.0
tp6327
a(F0.3655244029075805
F1.0
F352.0
tp6328
a(F0.36656282450674976
F1.0
F353.0
tp6329
a(F0.367601246105919
F1.0
F354.0
tp6330
a(F0.36863966770508827
F1.0
F355.0
tp6331
a(F0.36967808930425755
F1.0
F356.0
tp6332
a(F0.3707165109034268
F1.0
F357.0
tp6333
a(F0.37175493250259606
F1.0
F358.0
tp6334
a(F0.37279335410176534
F1.0
F359.0
tp6335
a(F0.37383177570093457
F1.0
F360.0
tp6336
a(F0.37487019730010385
F1.0
F361.0
tp6337
a(F0.37590861889927313
F1.0
F362.0
tp6338
a(F0.37694704049844235
F1.0
F363.0
tp6339
a(F0.37798546209761164
F1.0
F364.0
tp6340
a(F0.3790238836967809
F1.0
F365.0
tp6341
a(F0.38006230529595014
F1.0
F366.0
tp6342
a(F0.3811007268951194
F1.0
F367.0
tp6343
a(F0.3821391484942887
F1.0
F368.0
tp6344
a(F0.38317757009345793
F1.0
F369.0
tp6345
a(F0.3842159916926272
F1.0
F370.0
tp6346
a(F0.3852544132917965
F1.0
F371.0
tp6347
a(F0.3862928348909657
F1.0
F372.0
tp6348
a(F0.387331256490135
F1.0
F373.0
tp6349
a(F0.3883696780893043
F1.0
F374.0
tp6350
a(F0.3894080996884735
F1.0
F375.0
tp6351
a(F0.3904465212876428
F1.0
F376.0
tp6352
a(F0.39148494288681207
F1.0
F377.0
tp6353
a(F0.3925233644859813
F1.0
F378.0
tp6354
a(F0.3935617860851506
F1.0
F379.0
tp6355
a(F0.39460020768431986
F1.0
F380.0
tp6356
a(F0.3956386292834891
F1.0
F381.0
tp6357
a(F0.39667705088265837
F1.0
F382.0
tp6358
a(F0.39771547248182765
F1.0
F383.0
tp6359
a(F0.3987538940809969
F1.0
F384.0
tp6360
a(F0.39979231568016615
F1.0
F385.0
tp6361
a(F0.40083073727933544
F1.0
F386.0
tp6362
a(F0.40186915887850466
F1.0
F387.0
tp6363
a(F0.40290758047767394
F1.0
F388.0
tp6364
a(F0.4039460020768432
F1.0
F389.0
tp6365
a(F0.40498442367601245
F1.0
F390.0
tp6366
a(F0.40602284527518173
F1.0
F391.0
tp6367
a(F0.407061266874351
F1.0
F392.0
tp6368
a(F0.40809968847352024
F1.0
F393.0
tp6369
a(F0.4091381100726895
F1.0
F394.0
tp6370
a(F0.4101765316718588
F1.0
F395.0
tp6371
a(F0.411214953271028
F1.0
F396.0
tp6372
a(F0.4122533748701973
F1.0
F397.0
tp6373
a(F0.4132917964693666
F1.0
F398.0
tp6374
a(F0.4143302180685358
F1.0
F399.0
tp6375
a(F0.4153686396677051
F1.0
F400.0
tp6376
a(F0.4164070612668744
F1.0
F401.0
tp6377
a(F0.4174454828660436
F1.0
F402.0
tp6378
a(F0.4184839044652129
F1.0
F403.0
tp6379
a(F0.4195223260643821
F1.0
F404.0
tp6380
a(F0.4205607476635514
F1.0
F405.0
tp6381
a(F0.4215991692627207
F1.0
F406.0
tp6382
a(F0.4226375908618899
F1.0
F407.0
tp6383
a(F0.4236760124610592
F1.0
F408.0
tp6384
a(F0.42471443406022846
F1.0
F409.0
tp6385
a(F0.4257528556593977
F1.0
F410.0
tp6386
a(F0.42679127725856697
F1.0
F411.0
tp6387
a(F0.42782969885773625
F1.0
F412.0
tp6388
a(F0.4288681204569055
F1.0
F413.0
tp6389
a(F0.42990654205607476
F1.0
F414.0
tp6390
a(F0.43094496365524404
F1.0
F415.0
tp6391
a(F0.43198338525441327
F1.0
F416.0
tp6392
a(F0.43302180685358255
F1.0
F417.0
tp6393
a(F0.43406022845275183
F1.0
F418.0
tp6394
a(F0.43509865005192105
F1.0
F419.0
tp6395
a(F0.43613707165109034
F1.0
F420.0
tp6396
a(F0.4371754932502596
F1.0
F421.0
tp6397
a(F0.43821391484942884
F1.0
F422.0
tp6398
a(F0.4392523364485981
F1.0
F423.0
tp6399
a(F0.4402907580477674
F1.0
F424.0
tp6400
a(F0.44132917964693663
F1.0
F425.0
tp6401
a(F0.4423676012461059
F1.0
F426.0
tp6402
a(F0.4434060228452752
F1.0
F427.0
tp6403
a(F0.4444444444444444
F1.0
F428.0
tp6404
a(F0.4454828660436137
F1.0
F429.0
tp6405
a(F0.446521287642783
F1.0
F430.0
tp6406
a(F0.4475597092419522
F1.0
F431.0
tp6407
a(F0.4485981308411215
F1.0
F432.0
tp6408
a(F0.44963655244029077
F1.0
F433.0
tp6409
a(F0.45067497403946
F1.0
F434.0
tp6410
a(F0.4517133956386293
F1.0
F435.0
tp6411
a(F0.45275181723779856
F1.0
F436.0
tp6412
a(F0.4537902388369678
F1.0
F437.0
tp6413
a(F0.45482866043613707
F1.0
F438.0
tp6414
a(F0.45586708203530635
F1.0
F439.0
tp6415
a(F0.4569055036344756
F1.0
F440.0
tp6416
a(F0.45794392523364486
F1.0
F441.0
tp6417
a(F0.45898234683281414
F1.0
F442.0
tp6418
a(F0.46002076843198336
F1.0
F443.0
tp6419
a(F0.46105919003115264
F1.0
F444.0
tp6420
a(F0.4620976116303219
F1.0
F445.0
tp6421
a(F0.46313603322949115
F1.0
F446.0
tp6422
a(F0.46417445482866043
F1.0
F447.0
tp6423
a(F0.4652128764278297
F1.0
F448.0
tp6424
a(F0.46625129802699894
F1.0
F449.0
tp6425
a(F0.4672897196261682
F1.0
F450.0
tp6426
a(F0.4683281412253375
F1.0
F451.0
tp6427
a(F0.46936656282450673
F1.0
F452.0
tp6428
a(F0.470404984423676
F1.0
F453.0
tp6429
a(F0.4714434060228453
F1.0
F454.0
tp6430
a(F0.4724818276220145
F1.0
F455.0
tp6431
a(F0.4735202492211838
F1.0
F456.0
tp6432
a(F0.4745586708203531
F1.0
F457.0
tp6433
a(F0.4755970924195223
F1.0
F458.0
tp6434
a(F0.4766355140186916
F1.0
F459.0
tp6435
a(F0.47767393561786087
F1.0
F460.0
tp6436
a(F0.4787123572170301
F1.0
F461.0
tp6437
a(F0.4797507788161994
F1.0
F462.0
tp6438
a(F0.48078920041536866
F1.0
F463.0
tp6439
a(F0.4818276220145379
F1.0
F464.0
tp6440
a(F0.48286604361370716
F1.0
F465.0
tp6441
a(F0.48390446521287644
F1.0
F466.0
tp6442
a(F0.48494288681204567
F1.0
F467.0
tp6443
a(F0.48598130841121495
F1.0
F468.0
tp6444
a(F0.48701973001038423
F1.0
F469.0
tp6445
a(F0.48805815160955346
F1.0
F470.0
tp6446
a(F0.48909657320872274
F1.0
F471.0
tp6447
a(F0.490134994807892
F1.0
F472.0
tp6448
a(F0.49117341640706125
F1.0
F473.0
tp6449
a(F0.49221183800623053
F1.0
F474.0
tp6450
a(F0.4932502596053998
F1.0
F475.0
tp6451
a(F0.49428868120456904
F1.0
F476.0
tp6452
a(F0.4953271028037383
F1.0
F477.0
tp6453
a(F0.4963655244029076
F1.0
F478.0
tp6454
a(F0.4974039460020768
F1.0
F479.0
tp6455
a(F0.4984423676012461
F1.0
F480.0
tp6456
a(F0.4994807892004154
F1.0
F481.0
tp6457
a(F0.5005192107995846
F1.0
F482.0
tp6458
a(F0.5015576323987538
F1.0
F483.0
tp6459
a(F0.5025960539979232
F1.0
F484.0
tp6460
a(F0.5036344755970924
F1.0
F485.0
tp6461
a(F0.5046728971962616
F1.0
F486.0
tp6462
a(F0.505711318795431
F1.0
F487.0
tp6463
a(F0.5067497403946002
F1.0
F488.0
tp6464
a(F0.5077881619937694
F1.0
F489.0
tp6465
a(F0.5088265835929388
F1.0
F490.0
tp6466
a(F0.509865005192108
F1.0
F491.0
tp6467
a(F0.5109034267912772
F1.0
F492.0
tp6468
a(F0.5119418483904465
F1.0
F493.0
tp6469
a(F0.5129802699896158
F1.0
F494.0
tp6470
a(F0.514018691588785
F1.0
F495.0
tp6471
a(F0.5150571131879543
F1.0
F496.0
tp6472
a(F0.5160955347871236
F1.0
F497.0
tp6473
a(F0.5171339563862928
F1.0
F498.0
tp6474
a(F0.5181723779854621
F1.0
F499.0
tp6475
a(F0.5192107995846313
F1.0
F500.0
tp6476
a(F0.5202492211838006
F1.0
F501.0
tp6477
a(F0.5212876427829699
F1.0
F502.0
tp6478
a(F0.5223260643821391
F1.0
F503.0
tp6479
a(F0.5233644859813084
F1.0
F504.0
tp6480
a(F0.5244029075804777
F1.0
F505.0
tp6481
a(F0.5254413291796469
F1.0
F506.0
tp6482
a(F0.5264797507788161
F1.0
F507.0
tp6483
a(F0.5275181723779855
F1.0
F508.0
tp6484
a(F0.5285565939771547
F1.0
F509.0
tp6485
a(F0.5295950155763239
F1.0
F510.0
tp6486
a(F0.5306334371754933
F1.0
F511.0
tp6487
a(F0.5316718587746625
F1.0
F512.0
tp6488
a(F0.5327102803738317
F1.0
F513.0
tp6489
a(F0.5337487019730011
F1.0
F514.0
tp6490
a(F0.5347871235721703
F1.0
F515.0
tp6491
a(F0.5358255451713395
F1.0
F516.0
tp6492
a(F0.5368639667705088
F1.0
F517.0
tp6493
a(F0.5379023883696781
F1.0
F518.0
tp6494
a(F0.5389408099688473
F1.0
F519.0
tp6495
a(F0.5399792315680166
F1.0
F520.0
tp6496
a(F0.5410176531671859
F1.0
F521.0
tp6497
a(F0.5420560747663551
F1.0
F522.0
tp6498
a(F0.5430944963655244
F1.0
F523.0
tp6499
a(F0.5441329179646937
F1.0
F524.0
tp6500
a(F0.5451713395638629
F1.0
F525.0
tp6501
a(F0.5462097611630322
F1.0
F526.0
tp6502
a(F0.5472481827622014
F1.0
F527.0
tp6503
a(F0.5482866043613707
F1.0
F528.0
tp6504
a(F0.54932502596054
F1.0
F529.0
tp6505
a(F0.5503634475597092
F1.0
F530.0
tp6506
a(F0.5514018691588785
F1.0
F531.0
tp6507
a(F0.5524402907580478
F1.0
F532.0
tp6508
a(F0.553478712357217
F1.0
F533.0
tp6509
a(F0.5545171339563862
F1.0
F534.0
tp6510
a(F0.5555555555555556
F1.0
F535.0
tp6511
a(F0.5565939771547248
F1.0
F536.0
tp6512
a(F0.557632398753894
F1.0
F537.0
tp6513
a(F0.5586708203530634
F1.0
F538.0
tp6514
a(F0.5597092419522326
F1.0
F539.0
tp6515
a(F0.5607476635514018
F1.0
F540.0
tp6516
a(F0.5617860851505712
F1.0
F541.0
tp6517
a(F0.5628245067497404
F1.0
F542.0
tp6518
a(F0.5638629283489096
F1.0
F543.0
tp6519
a(F0.564901349948079
F1.0
F544.0
tp6520
a(F0.5659397715472482
F1.0
F545.0
tp6521
a(F0.5669781931464174
F1.0
F546.0
tp6522
a(F0.5680166147455867
F1.0
F547.0
tp6523
a(F0.569055036344756
F1.0
F548.0
tp6524
a(F0.5700934579439252
F1.0
F549.0
tp6525
a(F0.5711318795430945
F1.0
F550.0
tp6526
a(F0.5721703011422637
F1.0
F551.0
tp6527
a(F0.573208722741433
F1.0
F552.0
tp6528
a(F0.5742471443406023
F1.0
F553.0
tp6529
a(F0.5752855659397715
F1.0
F554.0
tp6530
a(F0.5763239875389408
F1.0
F555.0
tp6531
a(F0.5773624091381101
F1.0
F556.0
tp6532
a(F0.5784008307372793
F1.0
F557.0
tp6533
a(F0.5794392523364486
F1.0
F558.0
tp6534
a(F0.5804776739356179
F1.0
F559.0
tp6535
a(F0.5815160955347871
F1.0
F560.0
tp6536
a(F0.5825545171339563
F1.0
F561.0
tp6537
a(F0.5835929387331257
F1.0
F562.0
tp6538
a(F0.5846313603322949
F1.0
F563.0
tp6539
a(F0.5856697819314641
F1.0
F564.0
tp6540
a(F0.5867082035306335
F1.0
F565.0
tp6541
a(F0.5877466251298027
F1.0
F566.0
tp6542
a(F0.5887850467289719
F1.0
F567.0
tp6543
a(F0.5898234683281413
F1.0
F568.0
tp6544
a(F0.5908618899273105
F1.0
F569.0
tp6545
a(F0.5919003115264797
F1.0
F570.0
tp6546
a(F0.592938733125649
F1.0
F571.0
tp6547
a(F0.5939771547248183
F1.0
F572.0
tp6548
a(F0.5950155763239875
F1.0
F573.0
tp6549
a(F0.5960539979231568
F1.0
F574.0
tp6550
a(F0.5970924195223261
F1.0
F575.0
tp6551
a(F0.5981308411214953
F1.0
F576.0
tp6552
a(F0.5991692627206646
F1.0
F577.0
tp6553
a(F0.6002076843198338
F1.0
F578.0
tp6554
a(F0.6012461059190031
F1.0
F579.0
tp6555
a(F0.6022845275181724
F1.0
F580.0
tp6556
a(F0.6033229491173416
F1.0
F581.0
tp6557
a(F0.6043613707165109
F1.0
F582.0
tp6558
a(F0.6053997923156802
F1.0
F583.0
tp6559
a(F0.6064382139148494
F1.0
F584.0
tp6560
a(F0.6074766355140186
F1.0
F585.0
tp6561
a(F0.608515057113188
F1.0
F586.0
tp6562
a(F0.6095534787123572
F1.0
F587.0
tp6563
a(F0.6105919003115264
F1.0
F588.0
tp6564
a(F0.6116303219106958
F1.0
F589.0
tp6565
a(F0.612668743509865
F1.0
F590.0
tp6566
a(F0.6137071651090342
F1.0
F591.0
tp6567
a(F0.6147455867082036
F1.0
F592.0
tp6568
a(F0.6157840083073728
F1.0
F593.0
tp6569
a(F0.616822429906542
F1.0
F594.0
tp6570
a(F0.6178608515057114
F1.0
F595.0
tp6571
a(F0.6188992731048806
F1.0
F596.0
tp6572
a(F0.6199376947040498
F1.0
F597.0
tp6573
a(F0.6209761163032191
F1.0
F598.0
tp6574
a(F0.6220145379023884
F1.0
F599.0
tp6575
a(F0.6230529595015576
F1.0
F600.0
tp6576
a(F0.6240913811007269
F1.0
F601.0
tp6577
a(F0.6251298026998962
F1.0
F602.0
tp6578
a(F0.6261682242990654
F1.0
F603.0
tp6579
a(F0.6272066458982347
F1.0
F604.0
tp6580
a(F0.6282450674974039
F1.0
F605.0
tp6581
a(F0.6292834890965732
F1.0
F606.0
tp6582
a(F0.6303219106957425
F1.0
F607.0
tp6583
a(F0.6313603322949117
F1.0
F608.0
tp6584
a(F0.632398753894081
F1.0
F609.0
tp6585
a(F0.6334371754932503
F1.0
F610.0
tp6586
a(F0.6344755970924195
F1.0
F611.0
tp6587
a(F0.6355140186915887
F1.0
F612.0
tp6588
a(F0.6365524402907581
F1.0
F613.0
tp6589
a(F0.6375908618899273
F1.0
F614.0
tp6590
a(F0.6386292834890965
F1.0
F615.0
tp6591
a(F0.6396677050882659
F1.0
F616.0
tp6592
a(F0.6407061266874351
F1.0
F617.0
tp6593
a(F0.6417445482866043
F1.0
F618.0
tp6594
a(F0.6427829698857737
F1.0
F619.0
tp6595
a(F0.6438213914849429
F1.0
F620.0
tp6596
a(F0.6448598130841121
F1.0
F621.0
tp6597
a(F0.6458982346832814
F1.0
F622.0
tp6598
a(F0.6469366562824507
F1.0
F623.0
tp6599
a(F0.6479750778816199
F1.0
F624.0
tp6600
a(F0.6490134994807892
F1.0
F625.0
tp6601
a(F0.6500519210799585
F1.0
F626.0
tp6602
a(F0.6510903426791277
F1.0
F627.0
tp6603
a(F0.652128764278297
F1.0
F628.0
tp6604
a(F0.6531671858774662
F1.0
F629.0
tp6605
a(F0.6542056074766355
F1.0
F630.0
tp6606
a(F0.6552440290758048
F1.0
F631.0
tp6607
a(F0.656282450674974
F1.0
F632.0
tp6608
a(F0.6573208722741433
F1.0
F633.0
tp6609
a(F0.6583592938733126
F1.0
F634.0
tp6610
a(F0.6593977154724818
F1.0
F635.0
tp6611
a(F0.660436137071651
F1.0
F636.0
tp6612
a(F0.6614745586708204
F1.0
F637.0
tp6613
a(F0.6625129802699896
F1.0
F638.0
tp6614
a(F0.6635514018691588
F1.0
F639.0
tp6615
a(F0.6645898234683282
F1.0
F640.0
tp6616
a(F0.6656282450674974
F1.0
F641.0
tp6617
a(F0.6666666666666666
F1.0
F642.0
tp6618
a(F0.667705088265836
F1.0
F643.0
tp6619
a(F0.6687435098650052
F1.0
F644.0
tp6620
a(F0.6697819314641744
F1.0
F645.0
tp6621
a(F0.6708203530633438
F1.0
F646.0
tp6622
a(F0.671858774662513
F1.0
F647.0
tp6623
a(F0.6728971962616822
F1.0
F648.0
tp6624
a(F0.6739356178608515
F1.0
F649.0
tp6625
a(F0.6749740394600208
F1.0
F650.0
tp6626
a(F0.67601246105919
F1.0
F651.0
tp6627
a(F0.6770508826583593
F1.0
F652.0
tp6628
a(F0.6780893042575286
F1.0
F653.0
tp6629
a(F0.6791277258566978
F1.0
F654.0
tp6630
a(F0.6801661474558671
F1.0
F655.0
tp6631
a(F0.6812045690550363
F1.0
F656.0
tp6632
a(F0.6822429906542056
F1.0
F657.0
tp6633
a(F0.6832814122533749
F1.0
F658.0
tp6634
a(F0.6843198338525441
F1.0
F659.0
tp6635
a(F0.6853582554517134
F1.0
F660.0
tp6636
a(F0.6863966770508827
F1.0
F661.0
tp6637
a(F0.6874350986500519
F1.0
F662.0
tp6638
a(F0.6884735202492211
F1.0
F663.0
tp6639
a(F0.6895119418483905
F1.0
F664.0
tp6640
a(F0.6905503634475597
F1.0
F665.0
tp6641
a(F0.6915887850467289
F1.0
F666.0
tp6642
a(F0.6926272066458983
F1.0
F667.0
tp6643
a(F0.6936656282450675
F1.0
F668.0
tp6644
a(F0.6947040498442367
F1.0
F669.0
tp6645
a(F0.6957424714434061
F1.0
F670.0
tp6646
a(F0.6967808930425753
F1.0
F671.0
tp6647
a(F0.6978193146417445
F1.0
F672.0
tp6648
a(F0.6988577362409139
F1.0
F673.0
tp6649
a(F0.6998961578400831
F1.0
F674.0
tp6650
a(F0.7009345794392523
F1.0
F675.0
tp6651
a(F0.7019730010384216
F1.0
F676.0
tp6652
a(F0.7030114226375909
F1.0
F677.0
tp6653
a(F0.7040498442367601
F1.0
F678.0
tp6654
a(F0.7050882658359294
F1.0
F679.0
tp6655
a(F0.7061266874350987
F1.0
F680.0
tp6656
a(F0.7071651090342679
F1.0
F681.0
tp6657
a(F0.7082035306334372
F1.0
F682.0
tp6658
a(F0.7092419522326064
F1.0
F683.0
tp6659
a(F0.7102803738317757
F1.0
F684.0
tp6660
a(F0.711318795430945
F1.0
F685.0
tp6661
a(F0.7123572170301142
F1.0
F686.0
tp6662
a(F0.7133956386292835
F1.0
F687.0
tp6663
a(F0.7144340602284528
F1.0
F688.0
tp6664
a(F0.715472481827622
F1.0
F689.0
tp6665
a(F0.7165109034267912
F1.0
F690.0
tp6666
a(F0.7175493250259606
F1.0
F691.0
tp6667
a(F0.7185877466251298
F1.0
F692.0
tp6668
a(F0.719626168224299
F1.0
F693.0
tp6669
a(F0.7206645898234684
F1.0
F694.0
tp6670
a(F0.7217030114226376
F1.0
F695.0
tp6671
a(F0.7227414330218068
F1.0
F696.0
tp6672
a(F0.7237798546209762
F1.0
F697.0
tp6673
a(F0.7248182762201454
F1.0
F698.0
tp6674
a(F0.7258566978193146
F1.0
F699.0
tp6675
a(F0.726895119418484
F1.0
F700.0
tp6676
a(F0.7279335410176532
F1.0
F701.0
tp6677
a(F0.7289719626168224
F1.0
F702.0
tp6678
a(F0.7300103842159917
F1.0
F703.0
tp6679
a(F0.731048805815161
F1.0
F704.0
tp6680
a(F0.7320872274143302
F1.0
F705.0
tp6681
a(F0.7331256490134995
F1.0
F706.0
tp6682
a(F0.7341640706126688
F1.0
F707.0
tp6683
a(F0.735202492211838
F1.0
F708.0
tp6684
a(F0.7362409138110073
F1.0
F709.0
tp6685
a(F0.7372793354101765
F1.0
F710.0
tp6686
a(F0.7383177570093458
F1.0
F711.0
tp6687
a(F0.7393561786085151
F1.0
F712.0
tp6688
a(F0.7403946002076843
F1.0
F713.0
tp6689
a(F0.7414330218068536
F1.0
F714.0
tp6690
a(F0.7424714434060229
F1.0
F715.0
tp6691
a(F0.7435098650051921
F1.0
F716.0
tp6692
a(F0.7445482866043613
F1.0
F717.0
tp6693
a(F0.7455867082035307
F1.0
F718.0
tp6694
a(F0.7466251298026999
F1.0
F719.0
tp6695
a(F0.7476635514018691
F1.0
F720.0
tp6696
a(F0.7487019730010385
F1.0
F721.0
tp6697
a(F0.7497403946002077
F1.0
F722.0
tp6698
a(F0.7507788161993769
F1.0
F723.0
tp6699
a(F0.7518172377985463
F1.0
F724.0
tp6700
a(F0.7528556593977155
F1.0
F725.0
tp6701
a(F0.7538940809968847
F1.0
F726.0
tp6702
a(F0.754932502596054
F1.0
F727.0
tp6703
a(F0.7559709241952233
F1.0
F728.0
tp6704
a(F0.7570093457943925
F1.0
F729.0
tp6705
a(F0.7580477673935618
F1.0
F730.0
tp6706
a(F0.7590861889927311
F1.0
F731.0
tp6707
a(F0.7601246105919003
F1.0
F732.0
tp6708
a(F0.7611630321910696
F1.0
F733.0
tp6709
a(F0.7622014537902388
F1.0
F734.0
tp6710
a(F0.7632398753894081
F1.0
F735.0
tp6711
a(F0.7642782969885774
F1.0
F736.0
tp6712
a(F0.7653167185877466
F1.0
F737.0
tp6713
a(F0.7663551401869159
F1.0
F738.0
tp6714
a(F0.7673935617860852
F1.0
F739.0
tp6715
a(F0.7684319833852544
F1.0
F740.0
tp6716
a(F0.7694704049844237
F1.0
F741.0
tp6717
a(F0.770508826583593
F1.0
F742.0
tp6718
a(F0.7715472481827622
F1.0
F743.0
tp6719
a(F0.7725856697819314
F1.0
F744.0
tp6720
a(F0.7736240913811008
F1.0
F745.0
tp6721
a(F0.77466251298027
F1.0
F746.0
tp6722
a(F0.7757009345794392
F1.0
F747.0
tp6723
a(F0.7767393561786086
F1.0
F748.0
tp6724
a(F0.7777777777777778
F1.0
F749.0
tp6725
a(F0.778816199376947
F1.0
F750.0
tp6726
a(F0.7798546209761164
F1.0
F751.0
tp6727
a(F0.7808930425752856
F1.0
F752.0
tp6728
a(F0.7819314641744548
F1.0
F753.0
tp6729
a(F0.7829698857736241
F1.0
F754.0
tp6730
a(F0.7840083073727934
F1.0
F755.0
tp6731
a(F0.7850467289719626
F1.0
F756.0
tp6732
a(F0.7860851505711319
F1.0
F757.0
tp6733
a(F0.7871235721703012
F1.0
F758.0
tp6734
a(F0.7881619937694704
F1.0
F759.0
tp6735
a(F0.7892004153686397
F1.0
F760.0
tp6736
a(F0.7912772585669782
F1.0
F762.0
tp6737
a(F0.7923156801661475
F1.0
F763.0
tp6738
a(F0.7933541017653167
F1.0
F764.0
tp6739
a(F0.794392523364486
F1.0
F765.0
tp6740
a(F0.7954309449636553
F1.0
F766.0
tp6741
a(F0.7964693665628245
F1.0
F767.0
tp6742
a(F0.7975077881619937
F1.0
F768.0
tp6743
a(F0.7985462097611631
F1.0
F769.0
tp6744
a(F0.7995846313603323
F1.0
F770.0
tp6745
a(F0.8006230529595015
F1.0
F771.0
tp6746
a(F0.8016614745586709
F1.0
F772.0
tp6747
a(F0.8026998961578401
F1.0
F773.0
tp6748
a(F0.8037383177570093
F1.0
F774.0
tp6749
a(F0.8047767393561787
F1.0
F775.0
tp6750
a(F0.8058151609553479
F1.0
F776.0
tp6751
a(F0.8068535825545171
F1.0
F777.0
tp6752
a(F0.8078920041536864
F1.0
F778.0
tp6753
a(F0.8089304257528557
F1.0
F779.0
tp6754
a(F0.8099688473520249
F1.0
F780.0
tp6755
a(F0.8110072689511942
F1.0
F781.0
tp6756
a(F0.8120456905503635
F1.0
F782.0
tp6757
a(F0.8130841121495327
F1.0
F783.0
tp6758
a(F0.814122533748702
F1.0
F784.0
tp6759
a(F0.8151609553478713
F1.0
F785.0
tp6760
a(F0.8161993769470405
F1.0
F786.0
tp6761
a(F0.8172377985462098
F1.0
F787.0
tp6762
a(F0.818276220145379
F1.0
F788.0
tp6763
a(F0.8193146417445483
F1.0
F789.0
tp6764
a(F0.8203530633437176
F1.0
F790.0
tp6765
a(F0.8213914849428868
F1.0
F791.0
tp6766
a(F0.822429906542056
F1.0
F792.0
tp6767
a(F0.8234683281412254
F1.0
F793.0
tp6768
a(F0.8245067497403946
F1.0
F794.0
tp6769
a(F0.8255451713395638
F1.0
F795.0
tp6770
a(F0.8265835929387332
F1.0
F796.0
tp6771
a(F0.8276220145379024
F1.0
F797.0
tp6772
a(F0.8286604361370716
F1.0
F798.0
tp6773
a(F0.829698857736241
F1.0
F799.0
tp6774
a(F0.8307372793354102
F1.0
F800.0
tp6775
a(F0.8317757009345794
F1.0
F801.0
tp6776
a(F0.8328141225337488
F1.0
F802.0
tp6777
a(F0.833852544132918
F1.0
F803.0
tp6778
a(F0.8348909657320872
F1.0
F804.0
tp6779
a(F0.8359293873312564
F1.0
F805.0
tp6780
a(F0.8369678089304258
F1.0
F806.0
tp6781
a(F0.838006230529595
F1.0
F807.0
tp6782
a(F0.8390446521287642
F1.0
F808.0
tp6783
a(F0.8400830737279336
F1.0
F809.0
tp6784
a(F0.8411214953271028
F1.0
F810.0
tp6785
a(F0.842159916926272
F1.0
F811.0
tp6786
a(F0.8431983385254413
F1.0
F812.0
tp6787
a(F0.8442367601246106
F1.0
F813.0
tp6788
a(F0.8452751817237798
F1.0
F814.0
tp6789
a(F0.8463136033229491
F1.0
F815.0
tp6790
a(F0.8473520249221184
F1.0
F816.0
tp6791
a(F0.8483904465212876
F1.0
F817.0
tp6792
a(F0.8494288681204569
F1.0
F818.0
tp6793
a(F0.8504672897196262
F1.0
F819.0
tp6794
a(F0.8515057113187954
F1.0
F820.0
tp6795
a(F0.8525441329179647
F1.0
F821.0
tp6796
a(F0.8535825545171339
F1.0
F822.0
tp6797
a(F0.8546209761163032
F1.0
F823.0
tp6798
a(F0.8556593977154725
F1.0
F824.0
tp6799
a(F0.8566978193146417
F1.0
F825.0
tp6800
a(F0.857736240913811
F1.0
F826.0
tp6801
a(F0.8587746625129803
F1.0
F827.0
tp6802
a(F0.8598130841121495
F1.0
F828.0
tp6803
a(F0.8608515057113187
F1.0
F829.0
tp6804
a(F0.8618899273104881
F1.0
F830.0
tp6805
a(F0.8629283489096573
F1.0
F831.0
tp6806
a(F0.8639667705088265
F1.0
F832.0
tp6807
a(F0.8650051921079959
F1.0
F833.0
tp6808
a(F0.8660436137071651
F1.0
F834.0
tp6809
a(F0.8670820353063343
F1.0
F835.0
tp6810
a(F0.8681204569055037
F1.0
F836.0
tp6811
a(F0.8691588785046729
F1.0
F837.0
tp6812
a(F0.8701973001038421
F1.0
F838.0
tp6813
a(F0.8712357217030114
F1.0
F839.0
tp6814
a(F0.8722741433021807
F1.0
F840.0
tp6815
a(F0.8733125649013499
F1.0
F841.0
tp6816
a(F0.8743509865005192
F1.0
F842.0
tp6817
a(F0.8753894080996885
F1.0
F843.0
tp6818
a(F0.8764278296988577
F1.0
F844.0
tp6819
a(F0.877466251298027
F1.0
F845.0
tp6820
a(F0.8785046728971962
F1.0
F846.0
tp6821
a(F0.8795430944963655
F1.0
F847.0
tp6822
a(F0.8805815160955348
F1.0
F848.0
tp6823
a(F0.881619937694704
F1.0
F849.0
tp6824
a(F0.8826583592938733
F1.0
F850.0
tp6825
a(F0.8836967808930426
F1.0
F851.0
tp6826
a(F0.8847352024922118
F1.0
F852.0
tp6827
a(F0.885773624091381
F1.0
F853.0
tp6828
a(F0.8868120456905504
F1.0
F854.0
tp6829
a(F0.8878504672897196
F1.0
F855.0
tp6830
a(F0.8888888888888888
F1.0
F856.0
tp6831
a(F0.8899273104880582
F1.0
F857.0
tp6832
a(F0.8909657320872274
F1.0
F858.0
tp6833
a(F0.8920041536863966
F1.0
F859.0
tp6834
a(F0.893042575285566
F1.0
F860.0
tp6835
a(F0.8940809968847352
F1.0
F861.0
tp6836
a(F0.8951194184839044
F1.0
F862.0
tp6837
a(F0.8961578400830738
F1.0
F863.0
tp6838
a(F0.897196261682243
F1.0
F864.0
tp6839
a(F0.8982346832814122
F1.0
F865.0
tp6840
a(F0.8992731048805815
F1.0
F866.0
tp6841
a(F0.9003115264797508
F1.0
F867.0
tp6842
a(F0.90134994807892
F1.0
F868.0
tp6843
a(F0.9023883696780893
F1.0
F869.0
tp6844
a(F0.9034267912772586
F1.0
F870.0
tp6845
a(F0.9044652128764278
F1.0
F871.0
tp6846
a(F0.9055036344755971
F1.0
F872.0
tp6847
a(F0.9065420560747663
F1.0
F873.0
tp6848
a(F0.9075804776739356
F1.0
F874.0
tp6849
a(F0.9086188992731049
F1.0
F875.0
tp6850
a(F0.9096573208722741
F1.0
F876.0
tp6851
a(F0.9106957424714434
F1.0
F877.0
tp6852
a(F0.9117341640706127
F1.0
F878.0
tp6853
a(F0.9127725856697819
F1.0
F879.0
tp6854
a(F0.9138110072689511
F1.0
F880.0
tp6855
a(F0.9148494288681205
F1.0
F881.0
tp6856
a(F0.9158878504672897
F1.0
F882.0
tp6857
a(F0.9169262720664589
F1.0
F883.0
tp6858
a(F0.9179646936656283
F1.0
F884.0
tp6859
a(F0.9190031152647975
F1.0
F885.0
tp6860
a(F0.9200415368639667
F1.0
F886.0
tp6861
a(F0.9210799584631361
F1.0
F887.0
tp6862
a(F0.9221183800623053
F1.0
F888.0
tp6863
a(F0.9231568016614745
F1.0
F889.0
tp6864
a(F0.9241952232606438
F1.0
F890.0
tp6865
a(F0.9252336448598131
F1.0
F891.0
tp6866
a(F0.9262720664589823
F1.0
F892.0
tp6867
a(F0.9273104880581516
F1.0
F893.0
tp6868
a(F0.9283489096573209
F1.0
F894.0
tp6869
a(F0.9293873312564901
F1.0
F895.0
tp6870
a(F0.9304257528556594
F1.0
F896.0
tp6871
a(F0.9314641744548287
F1.0
F897.0
tp6872
a(F0.9335410176531672
F1.0
F899.0
tp6873
a(F0.9345794392523364
F1.0
F900.0
tp6874
a(F0.9356178608515057
F1.0
F901.0
tp6875
a(F0.936656282450675
F1.0
F902.0
tp6876
a(F0.9376947040498442
F1.0
F903.0
tp6877
a(F0.9387331256490135
F1.0
F904.0
tp6878
a(F0.9397715472481828
F1.0
F905.0
tp6879
a(F0.940809968847352
F1.0
F906.0
tp6880
a(F0.9418483904465212
F1.0
F907.0
tp6881
a(F0.9428868120456906
F1.0
F908.0
tp6882
a(F0.9439252336448598
F1.0
F909.0
tp6883
a(F0.944963655244029
F1.0
F910.0
tp6884
a(F0.9460020768431984
F1.0
F911.0
tp6885
a(F0.9470404984423676
F1.0
F912.0
tp6886
a(F0.9480789200415368
F1.0
F913.0
tp6887
a(F0.9491173416407062
F1.0
F914.0
tp6888
a(F0.9501557632398754
F1.0
F915.0
tp6889
a(F0.9511941848390446
F1.0
F916.0
tp6890
a(F0.952232606438214
F1.0
F917.0
tp6891
a(F0.9532710280373832
F1.0
F918.0
tp6892
a(F0.9543094496365524
F1.0
F919.0
tp6893
a(F0.9553478712357217
F1.0
F920.0
tp6894
a(F0.956386292834891
F1.0
F921.0
tp6895
a(F0.9574247144340602
F1.0
F922.0
tp6896
a(F0.9584631360332295
F1.0
F923.0
tp6897
a(F0.9595015576323987
F1.0
F924.0
tp6898
a(F0.960539979231568
F1.0
F925.0
tp6899
a(F0.9615784008307373
F1.0
F926.0
tp6900
a(F0.9626168224299065
F1.0
F927.0
tp6901
a(F0.9636552440290758
F1.0
F928.0
tp6902
a(F0.9646936656282451
F1.0
F929.0
tp6903
a(F0.9657320872274143
F1.0
F930.0
tp6904
a(F0.9667705088265836
F1.0
F931.0
tp6905
a(F0.9688473520249221
F1.0
F933.0
tp6906
a(F0.9698857736240913
F1.0
F934.0
tp6907
a(F0.9709241952232607
F1.0
F935.0
tp6908
a(F0.9719626168224299
F1.0
F936.0
tp6909
a(F0.9730010384215991
F1.0
F937.0
tp6910
a(F0.9740394600207685
F1.0
F938.0
tp6911
a(F0.9750778816199377
F1.0
F939.0
tp6912
a(F0.9761163032191069
F1.0
F940.0
tp6913
a(F0.9771547248182763
F1.0
F941.0
tp6914
a(F0.9781931464174455
F1.0
F942.0
tp6915
a(F0.9792315680166147
F1.0
F943.0
tp6916
a(F0.980269989615784
F1.0
F944.0
tp6917
a(F0.9844236760124611
F1.0
F948.0
tp6918
a(F0.9854620976116303
F1.0
F949.0
tp6919
a(F0.9865005192107996
F1.0
F950.0
tp6920
a(F0.9875389408099688
F1.0
F951.0
tp6921
a(F0.9885773624091381
F1.0
F952.0
tp6922
a(F0.9896157840083074
F1.0
F953.0
tp6923
a(F0.9906542056074766
F1.0
F954.0
tp6924
a(F0.9916926272066459
F1.0
F955.0
tp6925
a(F0.9927310488058152
F1.0
F956.0
tp6926
a(F0.995846313603323
F1.0
F959.0
tp6927
a(F0.9968847352024922
F1.0
F960.0
tp6928
a(F0.9979231568016614
F1.0
F961.0
tp6929
a(F1.0
F1.0
F963.0
tp6930
asb.